SF:/home/noah/src/repartir/src/error/mod.rs
FN:82,_RNvNtNtCslovhykcEmlY_8repartir5error5testss_18test_error_display
FN:99,_RNvNtNtCslovhykcEmlY_8repartir5error5testss_18test_timeout_error
FN:91,_RNvNtNtCslovhykcEmlY_8repartir5error5testss_21test_binary_not_found
FNDA:1,_RNvNtNtCslovhykcEmlY_8repartir5error5testss_18test_error_display
FNDA:1,_RNvNtNtCslovhykcEmlY_8repartir5error5testss_18test_timeout_error
FNDA:1,_RNvNtNtCslovhykcEmlY_8repartir5error5testss_21test_binary_not_found
FNF:3
FNH:3
DA:82,1
DA:83,1
DA:84,1
DA:85,1
DA:86,1
DA:87,1
DA:88,1
DA:91,1
DA:92,1
DA:93,1
DA:94,1
DA:95,1
DA:96,1
DA:99,1
DA:100,1
DA:101,1
DA:102,1
BRF:0
BRH:0
LF:17
LH:17
end_of_record
SF:/home/noah/src/repartir/src/executor/cpu.rs
FN:87,_RNCNvXs0_NtNtCsc3L6sovwUNL_8repartir8executor3cpuNtB7_11CpuExecutorNtB9_8Executor7execute0Bb_
FN:50,_RNvMNtNtCsc3L6sovwUNL_8repartir8executor3cpuNtB2_11CpuExecutor10with_cores
FN:55,_RNvMNtNtCsc3L6sovwUNL_8repartir8executor3cpuNtB2_11CpuExecutor15validate_binary
FN:40,_RNvMNtNtCsc3L6sovwUNL_8repartir8executor3cpuNtB2_11CpuExecutor3new
FN:167,_RNvXs0_NtNtCsc3L6sovwUNL_8repartir8executor3cpuNtB5_11CpuExecutorNtB7_8Executor4name
FN:86,_RNvXs0_NtNtCsc3L6sovwUNL_8repartir8executor3cpuNtB5_11CpuExecutorNtB7_8Executor7execute
FN:163,_RNvXs0_NtNtCsc3L6sovwUNL_8repartir8executor3cpuNtB5_11CpuExecutorNtB7_8Executor8capacity
FN:80,_RNvXs_NtNtCsc3L6sovwUNL_8repartir8executor3cpuNtB4_11CpuExecutorNtNtCs6RpC691fUBl_4core7default7Default7default
FN:106,_RNCNCNCNvXs0_NtNtCsc3L6sovwUNL_8repartir8executor3cpuNtBb_11CpuExecutorNtBd_8Executor7execute000Bf_
FN:123,_RNCNCNCNvXs0_NtNtCsc3L6sovwUNL_8repartir8executor3cpuNtBb_11CpuExecutorNtBd_8Executor7execute00s0_0Bf_
FN:130,_RNCNCNCNvXs0_NtNtCsc3L6sovwUNL_8repartir8executor3cpuNtBb_11CpuExecutorNtBd_8Executor7execute00s1_0Bf_
FN:116,_RNCNCNCNvXs0_NtNtCsc3L6sovwUNL_8repartir8executor3cpuNtBb_11CpuExecutorNtBd_8Executor7execute00s_0Bf_
FN:105,_RNCNCNvXs0_NtNtCsc3L6sovwUNL_8repartir8executor3cpuNtB9_11CpuExecutorNtBb_8Executor7execute00Bd_
FN:106,_RNCNCNCNvXs0_NtNtCslovhykcEmlY_8repartir8executor3cpuNtBb_11CpuExecutorNtBd_8Executor7execute000Bf_
FN:123,_RNCNCNCNvXs0_NtNtCslovhykcEmlY_8repartir8executor3cpuNtBb_11CpuExecutorNtBd_8Executor7execute00s0_0Bf_
FN:130,_RNCNCNCNvXs0_NtNtCslovhykcEmlY_8repartir8executor3cpuNtBb_11CpuExecutorNtBd_8Executor7execute00s1_0Bf_
FN:116,_RNCNCNCNvXs0_NtNtCslovhykcEmlY_8repartir8executor3cpuNtBb_11CpuExecutorNtBd_8Executor7execute00s_0Bf_
FN:105,_RNCNCNvXs0_NtNtCslovhykcEmlY_8repartir8executor3cpuNtB9_11CpuExecutorNtBb_8Executor7execute00Bd_
FN:87,_RNCNvXs0_NtNtCslovhykcEmlY_8repartir8executor3cpuNtB7_11CpuExecutorNtB9_8Executor7execute0Bb_
FN:50,_RNvMNtNtCslovhykcEmlY_8repartir8executor3cpuNtB2_11CpuExecutor10with_cores
FN:55,_RNvMNtNtCslovhykcEmlY_8repartir8executor3cpuNtB2_11CpuExecutor15validate_binary
FN:40,_RNvMNtNtCslovhykcEmlY_8repartir8executor3cpuNtB2_11CpuExecutor3new
FN:167,_RNvXs0_NtNtCslovhykcEmlY_8repartir8executor3cpuNtB5_11CpuExecutorNtB7_8Executor4name
FN:86,_RNvXs0_NtNtCslovhykcEmlY_8repartir8executor3cpuNtB5_11CpuExecutorNtB7_8Executor7execute
FN:163,_RNvXs0_NtNtCslovhykcEmlY_8repartir8executor3cpuNtB5_11CpuExecutorNtB7_8Executor8capacity
FN:80,_RNvXs_NtNtCslovhykcEmlY_8repartir8executor3cpuNtB4_11CpuExecutorNtNtCs6RpC691fUBl_4core7default7Default7default
FN:247,_RNCNvNtNtNtCslovhykcEmlY_8repartir8executor3cpu5testss_25test_cpu_executor_timeout0B9_
FN:377,_RNCNvNtNtNtCslovhykcEmlY_8repartir8executor3cpu5testss_28test_cpu_executor_empty_args0B9_
FN:418,_RNCNvNtNtNtCslovhykcEmlY_8repartir8executor3cpu5testss_30test_cpu_executor_empty_output0B9_
FN:395,_RNCNvNtNtNtCslovhykcEmlY_8repartir8executor3cpu5testss_30test_cpu_executor_large_output0B9_
FN:205,_RNCNvNtNtNtCslovhykcEmlY_8repartir8executor3cpu5testss_30test_cpu_executor_nonzero_exit0B9_
FN:329,_RNCNvNtNtNtCslovhykcEmlY_8repartir8executor3cpu5testss_31test_cpu_executor_multiple_args0B9_
FN:282,_RNCNvNtNtNtCslovhykcEmlY_8repartir8executor3cpu5testss_31test_cpu_executor_with_env_vars0B9_
FN:180,_RNCNvNtNtNtCslovhykcEmlY_8repartir8executor3cpu5testss_32test_cpu_executor_simple_command0B9_
FN:306,_RNCNvNtNtNtCslovhykcEmlY_8repartir8executor3cpu5testss_32test_cpu_executor_stderr_capture0B9_
FN:229,_RNCNvNtNtNtCslovhykcEmlY_8repartir8executor3cpu5testss_34test_cpu_executor_binary_not_found0B9_
FN:353,_RNCNvNtNtNtCslovhykcEmlY_8repartir8executor3cpu5testss_35test_cpu_executor_stdout_and_stderr0B9_
FN:440,_RNCNvNtNtNtCslovhykcEmlY_8repartir8executor3cpu5testss_36test_cpu_executor_signal_termination0B9_
FN:275,_RNvNtNtNtCslovhykcEmlY_8repartir8executor3cpu5testss_25test_cpu_executor_default
FN:247,_RNvNtNtNtCslovhykcEmlY_8repartir8executor3cpu5testss_25test_cpu_executor_timeout
FN:377,_RNvNtNtNtCslovhykcEmlY_8repartir8executor3cpu5testss_28test_cpu_executor_empty_args
FN:268,_RNvNtNtNtCslovhykcEmlY_8repartir8executor3cpu5testss_28test_cpu_executor_with_cores
FN:418,_RNvNtNtNtCslovhykcEmlY_8repartir8executor3cpu5testss_30test_cpu_executor_empty_output
FN:395,_RNvNtNtNtCslovhykcEmlY_8repartir8executor3cpu5testss_30test_cpu_executor_large_output
FN:205,_RNvNtNtNtCslovhykcEmlY_8repartir8executor3cpu5testss_30test_cpu_executor_nonzero_exit
FN:329,_RNvNtNtNtCslovhykcEmlY_8repartir8executor3cpu5testss_31test_cpu_executor_multiple_args
FN:282,_RNvNtNtNtCslovhykcEmlY_8repartir8executor3cpu5testss_31test_cpu_executor_with_env_vars
FN:180,_RNvNtNtNtCslovhykcEmlY_8repartir8executor3cpu5testss_32test_cpu_executor_simple_command
FN:306,_RNvNtNtNtCslovhykcEmlY_8repartir8executor3cpu5testss_32test_cpu_executor_stderr_capture
FN:229,_RNvNtNtNtCslovhykcEmlY_8repartir8executor3cpu5testss_34test_cpu_executor_binary_not_found
FN:353,_RNvNtNtNtCslovhykcEmlY_8repartir8executor3cpu5testss_35test_cpu_executor_stdout_and_stderr
FN:440,_RNvNtNtNtCslovhykcEmlY_8repartir8executor3cpu5testss_36test_cpu_executor_signal_termination
FNDA:20,_RNCNvXs0_NtNtCsc3L6sovwUNL_8repartir8executor3cpuNtB7_11CpuExecutorNtB9_8Executor7execute0Bb_
FNDA:0,_RNvMNtNtCsc3L6sovwUNL_8repartir8executor3cpuNtB2_11CpuExecutor10with_cores
FNDA:20,_RNvMNtNtCsc3L6sovwUNL_8repartir8executor3cpuNtB2_11CpuExecutor15validate_binary
FNDA:17,_RNvMNtNtCsc3L6sovwUNL_8repartir8executor3cpuNtB2_11CpuExecutor3new
FNDA:0,_RNvXs0_NtNtCsc3L6sovwUNL_8repartir8executor3cpuNtB5_11CpuExecutorNtB7_8Executor4name
FNDA:20,_RNvXs0_NtNtCsc3L6sovwUNL_8repartir8executor3cpuNtB5_11CpuExecutorNtB7_8Executor7execute
FNDA:0,_RNvXs0_NtNtCsc3L6sovwUNL_8repartir8executor3cpuNtB5_11CpuExecutorNtB7_8Executor8capacity
FNDA:0,_RNvXs_NtNtCsc3L6sovwUNL_8repartir8executor3cpuNtB4_11CpuExecutorNtNtCs6RpC691fUBl_4core7default7Default7default
FNDA:0,_RNCNCNCNvXs0_NtNtCsc3L6sovwUNL_8repartir8executor3cpuNtBb_11CpuExecutorNtBd_8Executor7execute000Bf_
FNDA:0,_RNCNCNCNvXs0_NtNtCsc3L6sovwUNL_8repartir8executor3cpuNtBb_11CpuExecutorNtBd_8Executor7execute00s0_0Bf_
FNDA:0,_RNCNCNCNvXs0_NtNtCsc3L6sovwUNL_8repartir8executor3cpuNtBb_11CpuExecutorNtBd_8Executor7execute00s1_0Bf_
FNDA:0,_RNCNCNCNvXs0_NtNtCsc3L6sovwUNL_8repartir8executor3cpuNtBb_11CpuExecutorNtBd_8Executor7execute00s_0Bf_
FNDA:19,_RNCNCNvXs0_NtNtCsc3L6sovwUNL_8repartir8executor3cpuNtB9_11CpuExecutorNtBb_8Executor7execute00Bd_
FNDA:0,_RNCNCNCNvXs0_NtNtCslovhykcEmlY_8repartir8executor3cpuNtBb_11CpuExecutorNtBd_8Executor7execute000Bf_
FNDA:0,_RNCNCNCNvXs0_NtNtCslovhykcEmlY_8repartir8executor3cpuNtBb_11CpuExecutorNtBd_8Executor7execute00s0_0Bf_
FNDA:0,_RNCNCNCNvXs0_NtNtCslovhykcEmlY_8repartir8executor3cpuNtBb_11CpuExecutorNtBd_8Executor7execute00s1_0Bf_
FNDA:0,_RNCNCNCNvXs0_NtNtCslovhykcEmlY_8repartir8executor3cpuNtBb_11CpuExecutorNtBd_8Executor7execute00s_0Bf_
FNDA:12,_RNCNCNvXs0_NtNtCslovhykcEmlY_8repartir8executor3cpuNtB9_11CpuExecutorNtBb_8Executor7execute00Bd_
FNDA:13,_RNCNvXs0_NtNtCslovhykcEmlY_8repartir8executor3cpuNtB7_11CpuExecutorNtB9_8Executor7execute0Bb_
FNDA:1,_RNvMNtNtCslovhykcEmlY_8repartir8executor3cpuNtB2_11CpuExecutor10with_cores
FNDA:13,_RNvMNtNtCslovhykcEmlY_8repartir8executor3cpuNtB2_11CpuExecutor15validate_binary
FNDA:15,_RNvMNtNtCslovhykcEmlY_8repartir8executor3cpuNtB2_11CpuExecutor3new
FNDA:2,_RNvXs0_NtNtCslovhykcEmlY_8repartir8executor3cpuNtB5_11CpuExecutorNtB7_8Executor4name
FNDA:13,_RNvXs0_NtNtCslovhykcEmlY_8repartir8executor3cpuNtB5_11CpuExecutorNtB7_8Executor7execute
FNDA:3,_RNvXs0_NtNtCslovhykcEmlY_8repartir8executor3cpuNtB5_11CpuExecutorNtB7_8Executor8capacity
FNDA:1,_RNvXs_NtNtCslovhykcEmlY_8repartir8executor3cpuNtB4_11CpuExecutorNtNtCs6RpC691fUBl_4core7default7Default7default
FNDA:1,_RNCNvNtNtNtCslovhykcEmlY_8repartir8executor3cpu5testss_25test_cpu_executor_timeout0B9_
FNDA:1,_RNCNvNtNtNtCslovhykcEmlY_8repartir8executor3cpu5testss_28test_cpu_executor_empty_args0B9_
FNDA:1,_RNCNvNtNtNtCslovhykcEmlY_8repartir8executor3cpu5testss_30test_cpu_executor_empty_output0B9_
FNDA:1,_RNCNvNtNtNtCslovhykcEmlY_8repartir8executor3cpu5testss_30test_cpu_executor_large_output0B9_
FNDA:1,_RNCNvNtNtNtCslovhykcEmlY_8repartir8executor3cpu5testss_30test_cpu_executor_nonzero_exit0B9_
FNDA:1,_RNCNvNtNtNtCslovhykcEmlY_8repartir8executor3cpu5testss_31test_cpu_executor_multiple_args0B9_
FNDA:1,_RNCNvNtNtNtCslovhykcEmlY_8repartir8executor3cpu5testss_31test_cpu_executor_with_env_vars0B9_
FNDA:1,_RNCNvNtNtNtCslovhykcEmlY_8repartir8executor3cpu5testss_32test_cpu_executor_simple_command0B9_
FNDA:1,_RNCNvNtNtNtCslovhykcEmlY_8repartir8executor3cpu5testss_32test_cpu_executor_stderr_capture0B9_
FNDA:1,_RNCNvNtNtNtCslovhykcEmlY_8repartir8executor3cpu5testss_34test_cpu_executor_binary_not_found0B9_
FNDA:1,_RNCNvNtNtNtCslovhykcEmlY_8repartir8executor3cpu5testss_35test_cpu_executor_stdout_and_stderr0B9_
FNDA:1,_RNCNvNtNtNtCslovhykcEmlY_8repartir8executor3cpu5testss_36test_cpu_executor_signal_termination0B9_
FNDA:1,_RNvNtNtNtCslovhykcEmlY_8repartir8executor3cpu5testss_25test_cpu_executor_default
FNDA:1,_RNvNtNtNtCslovhykcEmlY_8repartir8executor3cpu5testss_25test_cpu_executor_timeout
FNDA:1,_RNvNtNtNtCslovhykcEmlY_8repartir8executor3cpu5testss_28test_cpu_executor_empty_args
FNDA:1,_RNvNtNtNtCslovhykcEmlY_8repartir8executor3cpu5testss_28test_cpu_executor_with_cores
FNDA:1,_RNvNtNtNtCslovhykcEmlY_8repartir8executor3cpu5testss_30test_cpu_executor_empty_output
FNDA:1,_RNvNtNtNtCslovhykcEmlY_8repartir8executor3cpu5testss_30test_cpu_executor_large_output
FNDA:1,_RNvNtNtNtCslovhykcEmlY_8repartir8executor3cpu5testss_30test_cpu_executor_nonzero_exit
FNDA:1,_RNvNtNtNtCslovhykcEmlY_8repartir8executor3cpu5testss_31test_cpu_executor_multiple_args
FNDA:1,_RNvNtNtNtCslovhykcEmlY_8repartir8executor3cpu5testss_31test_cpu_executor_with_env_vars
FNDA:1,_RNvNtNtNtCslovhykcEmlY_8repartir8executor3cpu5testss_32test_cpu_executor_simple_command
FNDA:1,_RNvNtNtNtCslovhykcEmlY_8repartir8executor3cpu5testss_32test_cpu_executor_stderr_capture
FNDA:1,_RNvNtNtNtCslovhykcEmlY_8repartir8executor3cpu5testss_34test_cpu_executor_binary_not_found
FNDA:1,_RNvNtNtNtCslovhykcEmlY_8repartir8executor3cpu5testss_35test_cpu_executor_stdout_and_stderr
FNDA:1,_RNvNtNtNtCslovhykcEmlY_8repartir8executor3cpu5testss_36test_cpu_executor_signal_termination
FNF:39
FNH:35
DA:40,32
DA:41,32
DA:42,32
DA:43,32
DA:44,32
DA:50,1
DA:51,1
DA:52,1
DA:55,33
DA:56,33
DA:57,2
DA:58,2
DA:59,2
DA:60,31
DA:66,31
DA:67,31
DA:68,31
DA:69,0
DA:70,0
DA:71,0
DA:72,31
DA:75,31
DA:76,33
DA:80,1
DA:81,1
DA:82,1
DA:86,33
DA:87,33
DA:88,33
DA:89,33
DA:92,33
DA:94,31
DA:97,31
DA:98,31
DA:99,31
DA:100,31
DA:101,31
DA:102,31
DA:105,31
DA:106,31
DA:107,0
DA:108,0
DA:109,0
DA:112,31
DA:113,31
DA:115,31
DA:116,31
DA:117,0
DA:118,0
DA:119,0
DA:120,0
DA:122,29
DA:123,29
DA:124,0
DA:125,0
DA:126,0
DA:127,0
DA:130,29
DA:131,0
DA:132,0
DA:133,0
DA:135,29
DA:136,29
DA:138,29
DA:140,29
DA:141,29
DA:142,29
DA:143,29
DA:146,31
DA:147,3
DA:148,1
DA:150,2
DA:151,2
DA:152,2
DA:153,2
DA:156,28
DA:159,29
DA:160,33
DA:161,33
DA:163,3
DA:164,3
DA:165,3
DA:167,2
DA:168,2
DA:169,2
DA:180,1
DA:181,1
DA:182,1
DA:185,1
DA:186,1
DA:187,1
DA:188,1
DA:189,1
DA:190,1
DA:191,1
DA:192,1
DA:193,1
DA:194,1
DA:195,1
DA:196,1
DA:197,1
DA:198,1
DA:199,1
DA:200,1
DA:201,1
DA:202,1
DA:205,1
DA:206,1
DA:209,1
DA:210,1
DA:211,1
DA:212,1
DA:213,1
DA:214,1
DA:215,1
DA:216,1
DA:217,1
DA:218,1
DA:219,1
DA:220,1
DA:221,1
DA:222,1
DA:223,1
DA:224,1
DA:225,1
DA:226,1
DA:229,1
DA:230,1
DA:232,1
DA:233,1
DA:234,1
DA:235,1
DA:236,1
DA:238,1
DA:239,1
DA:240,1
DA:241,1
DA:242,1
DA:243,1
DA:244,1
DA:247,1
DA:248,1
DA:251,1
DA:252,1
DA:253,1
DA:254,1
DA:255,1
DA:256,1
DA:257,1
DA:258,1
DA:259,1
DA:260,1
DA:261,1
DA:262,1
DA:263,1
DA:264,1
DA:265,1
DA:268,1
DA:269,1
DA:270,1
DA:271,1
DA:272,1
DA:275,1
DA:276,1
DA:277,1
DA:278,1
DA:279,1
DA:282,1
DA:283,1
DA:285,1
DA:286,1
DA:287,1
DA:288,1
DA:289,1
DA:290,1
DA:291,1
DA:292,1
DA:293,1
DA:294,1
DA:295,1
DA:296,1
DA:297,1
DA:298,1
DA:299,1
DA:300,1
DA:301,1
DA:302,1
DA:303,1
DA:306,1
DA:307,1
DA:309,1
DA:310,1
DA:311,1
DA:312,1
DA:313,1
DA:314,1
DA:315,1
DA:316,1
DA:317,1
DA:318,1
DA:319,1
DA:320,1
DA:321,1
DA:322,1
DA:323,1
DA:324,1
DA:325,1
DA:326,1
DA:329,1
DA:330,1
DA:332,1
DA:333,1
DA:334,1
DA:335,1
DA:336,1
DA:337,1
DA:338,1
DA:339,1
DA:340,1
DA:341,1
DA:342,1
DA:343,1
DA:344,1
DA:345,1
DA:346,1
DA:347,1
DA:348,1
DA:349,1
DA:350,1
DA:353,1
DA:354,1
DA:356,1
DA:357,1
DA:358,1
DA:359,1
DA:360,1
DA:361,1
DA:362,1
DA:363,1
DA:364,1
DA:365,1
DA:366,1
DA:367,1
DA:368,1
DA:369,1
DA:370,1
DA:371,1
DA:372,1
DA:373,1
DA:374,1
DA:377,1
DA:378,1
DA:380,1
DA:381,1
DA:382,1
DA:383,1
DA:384,1
DA:385,1
DA:386,1
DA:387,1
DA:388,1
DA:389,1
DA:390,1
DA:391,1
DA:392,1
DA:395,1
DA:396,1
DA:398,1
DA:399,1
DA:400,1
DA:401,1
DA:402,1
DA:403,1
DA:404,1
DA:405,1
DA:406,1
DA:407,1
DA:408,1
DA:409,1
DA:410,1
DA:411,1
DA:412,1
DA:413,1
DA:414,1
DA:415,1
DA:418,1
DA:419,1
DA:421,1
DA:422,1
DA:423,1
DA:424,1
DA:425,1
DA:426,1
DA:427,1
DA:428,1
DA:429,1
DA:430,1
DA:431,1
DA:432,1
DA:433,1
DA:434,1
DA:435,1
DA:436,1
DA:437,1
DA:440,1
DA:441,1
DA:443,1
DA:444,1
DA:445,1
DA:446,1
DA:447,1
DA:448,1
DA:449,1
DA:450,1
DA:451,1
DA:452,1
DA:453,1
DA:454,1
DA:455,1
DA:456,1
DA:457,1
DA:458,1
DA:459,1
DA:460,1
BRF:0
BRH:0
LF:474
LH:449
end_of_record
SF:/home/noah/src/repartir/src/executor/mod.rs
FN:67,_RNvNtNtCslovhykcEmlY_8repartir8executor5tests19__assert_object_safe
FNDA:0,_RNvNtNtCslovhykcEmlY_8repartir8executor5tests19__assert_object_safe
FNF:1
FNH:0
DA:67,0
BRF:0
BRH:0
LF:1
LH:0
end_of_record
SF:/home/noah/src/repartir/src/lib.rs
FN:227,_RNCNvMs_Csc3L6sovwUNL_8repartirNtB6_11PoolBuilder5build0B6_
FN:161,_RNvMCsc3L6sovwUNL_8repartirNtB2_4Pool13pending_tasks
FN:139,_RNvMCsc3L6sovwUNL_8repartirNtB2_4Pool6submit
FN:127,_RNvMCsc3L6sovwUNL_8repartirNtB2_4Pool7builder
FN:156,_RNvMCsc3L6sovwUNL_8repartirNtB2_4Pool8capacity
FN:168,_RNvMCsc3L6sovwUNL_8repartirNtB2_4Pool8shutdown
FN:185,_RNvMs_Csc3L6sovwUNL_8repartirNtB4_11PoolBuilder11cpu_workers
FN:192,_RNvMs_Csc3L6sovwUNL_8repartirNtB4_11PoolBuilder14max_queue_size
FN:206,_RNvMs_Csc3L6sovwUNL_8repartirNtB4_11PoolBuilder5build
FN:161,_RNCNvMCsc3L6sovwUNL_8repartirNtB4_4Pool13pending_tasks0B4_
FN:139,_RNCNvMCsc3L6sovwUNL_8repartirNtB4_4Pool6submit0B4_
FN:168,_RNCNvMCsc3L6sovwUNL_8repartirNtB4_4Pool8shutdown0B4_
FN:161,_RNvMCslovhykcEmlY_8repartirNtB2_4Pool13pending_tasks
FN:139,_RNvMCslovhykcEmlY_8repartirNtB2_4Pool6submit
FN:127,_RNvMCslovhykcEmlY_8repartirNtB2_4Pool7builder
FN:156,_RNvMCslovhykcEmlY_8repartirNtB2_4Pool8capacity
FN:168,_RNvMCslovhykcEmlY_8repartirNtB2_4Pool8shutdown
FN:185,_RNvMs_CslovhykcEmlY_8repartirNtB4_11PoolBuilder11cpu_workers
FN:192,_RNvMs_CslovhykcEmlY_8repartirNtB4_11PoolBuilder14max_queue_size
FN:206,_RNvMs_CslovhykcEmlY_8repartirNtB4_11PoolBuilder5build
FN:161,_RNCNvMCslovhykcEmlY_8repartirNtB4_4Pool13pending_tasks0B4_
FN:139,_RNCNvMCslovhykcEmlY_8repartirNtB4_4Pool6submit0B4_
FN:168,_RNCNvMCslovhykcEmlY_8repartirNtB4_4Pool8shutdown0B4_
FN:264,_RNCNvNtCslovhykcEmlY_8repartir5testss_17test_pool_builder0B5_
FN:276,_RNCNvNtCslovhykcEmlY_8repartir5testss_21test_pool_submit_task0B5_
FN:309,_RNCNvNtCslovhykcEmlY_8repartir5testss_26test_pool_no_workers_error0B5_
FN:264,_RNvNtCslovhykcEmlY_8repartir5testss_17test_pool_builder
FN:276,_RNvNtCslovhykcEmlY_8repartir5testss_21test_pool_submit_task
FN:309,_RNvNtCslovhykcEmlY_8repartir5testss_26test_pool_no_workers_error
FN:227,_RNCNvMs_CslovhykcEmlY_8repartirNtB6_11PoolBuilder5build0B6_
FNDA:0,_RNCNvMs_Csc3L6sovwUNL_8repartirNtB6_11PoolBuilder5build0B6_
FNDA:0,_RNvMCsc3L6sovwUNL_8repartirNtB2_4Pool13pending_tasks
FNDA:0,_RNvMCsc3L6sovwUNL_8repartirNtB2_4Pool6submit
FNDA:0,_RNvMCsc3L6sovwUNL_8repartirNtB2_4Pool7builder
FNDA:0,_RNvMCsc3L6sovwUNL_8repartirNtB2_4Pool8capacity
FNDA:0,_RNvMCsc3L6sovwUNL_8repartirNtB2_4Pool8shutdown
FNDA:0,_RNvMs_Csc3L6sovwUNL_8repartirNtB4_11PoolBuilder11cpu_workers
FNDA:0,_RNvMs_Csc3L6sovwUNL_8repartirNtB4_11PoolBuilder14max_queue_size
FNDA:0,_RNvMs_Csc3L6sovwUNL_8repartirNtB4_11PoolBuilder5build
FNDA:0,_RNCNvMCsc3L6sovwUNL_8repartirNtB4_4Pool13pending_tasks0B4_
FNDA:0,_RNCNvMCsc3L6sovwUNL_8repartirNtB4_4Pool6submit0B4_
FNDA:0,_RNCNvMCsc3L6sovwUNL_8repartirNtB4_4Pool8shutdown0B4_
FNDA:1,_RNvMCslovhykcEmlY_8repartirNtB2_4Pool13pending_tasks
FNDA:1,_RNvMCslovhykcEmlY_8repartirNtB2_4Pool6submit
FNDA:3,_RNvMCslovhykcEmlY_8repartirNtB2_4Pool7builder
FNDA:1,_RNvMCslovhykcEmlY_8repartirNtB2_4Pool8capacity
FNDA:2,_RNvMCslovhykcEmlY_8repartirNtB2_4Pool8shutdown
FNDA:2,_RNvMs_CslovhykcEmlY_8repartirNtB4_11PoolBuilder11cpu_workers
FNDA:1,_RNvMs_CslovhykcEmlY_8repartirNtB4_11PoolBuilder14max_queue_size
FNDA:3,_RNvMs_CslovhykcEmlY_8repartirNtB4_11PoolBuilder5build
FNDA:1,_RNCNvMCslovhykcEmlY_8repartirNtB4_4Pool13pending_tasks0B4_
FNDA:1,_RNCNvMCslovhykcEmlY_8repartirNtB4_4Pool6submit0B4_
FNDA:2,_RNCNvMCslovhykcEmlY_8repartirNtB4_4Pool8shutdown0B4_
FNDA:1,_RNCNvNtCslovhykcEmlY_8repartir5testss_17test_pool_builder0B5_
FNDA:1,_RNCNvNtCslovhykcEmlY_8repartir5testss_21test_pool_submit_task0B5_
FNDA:1,_RNCNvNtCslovhykcEmlY_8repartir5testss_26test_pool_no_workers_error0B5_
FNDA:1,_RNvNtCslovhykcEmlY_8repartir5testss_17test_pool_builder
FNDA:1,_RNvNtCslovhykcEmlY_8repartir5testss_21test_pool_submit_task
FNDA:1,_RNvNtCslovhykcEmlY_8repartir5testss_26test_pool_no_workers_error
FNDA:2,_RNCNvMs_CslovhykcEmlY_8repartirNtB6_11PoolBuilder5build0B6_
FNF:18
FNH:18
DA:127,3
DA:128,3
DA:129,3
DA:139,1
DA:140,1
DA:141,1
DA:145,2
DA:146,1
DA:147,1
DA:148,1
DA:150,1
DA:152,1
DA:156,1
DA:157,1
DA:158,1
DA:161,1
DA:162,1
DA:163,1
DA:168,2
DA:169,2
DA:170,2
DA:171,2
DA:172,2
DA:185,2
DA:186,2
DA:187,2
DA:188,2
DA:192,1
DA:193,1
DA:194,1
DA:195,1
DA:206,3
DA:207,3
DA:209,3
DA:210,1
DA:211,1
DA:212,1
DA:213,2
DA:215,2
DA:216,2
DA:217,2
DA:219,2
DA:222,2
DA:223,4
DA:224,4
DA:225,4
DA:227,4
DA:228,2
DA:231,3
DA:232,1
DA:233,1
DA:234,1
DA:236,0
DA:237,0
DA:242,2
DA:248,2
DA:249,2
DA:250,2
DA:251,2
DA:252,2
DA:253,2
DA:254,3
DA:264,1
DA:265,1
DA:267,1
DA:268,1
DA:269,1
DA:270,1
DA:272,1
DA:273,1
DA:276,1
DA:277,1
DA:278,1
DA:279,1
DA:280,1
DA:282,1
DA:283,1
DA:284,1
DA:285,1
DA:286,1
DA:287,1
DA:288,1
DA:289,1
DA:290,1
DA:291,1
DA:292,1
DA:293,1
DA:294,1
DA:295,1
DA:296,1
DA:297,1
DA:298,1
DA:299,1
DA:300,1
DA:301,1
DA:302,1
DA:303,1
DA:304,1
DA:305,1
DA:306,1
DA:309,1
DA:310,1
DA:311,1
DA:312,1
BRF:0
BRH:0
LF:129
LH:127
end_of_record
SF:/home/noah/src/repartir/src/messaging.rs
FN:100,_RINvMNtCsc3L6sovwUNL_8repartir9messagingNtB3_7Message13with_metadatappEB5_
FN:82,_RINvMNtCsc3L6sovwUNL_8repartir9messagingNtB3_7Message4textpEB5_
FN:313,_RNCNCNvMs1_NtCsc3L6sovwUNL_8repartir9messagingNtB9_15PushPullChannel4push00Bb_
FN:225,_RNCNCNvMs_NtCsc3L6sovwUNL_8repartir9messagingNtB8_13PubSubChannel7publish00Ba_
FN:201,_RNCNCNvMs_NtCsc3L6sovwUNL_8repartir9messagingNtB8_13PubSubChannel9subscribe00Ba_
FN:322,_RNCNvMs1_NtCsc3L6sovwUNL_8repartir9messagingNtB7_15PushPullChannel4pull0B9_
FN:308,_RNCNvMs1_NtCsc3L6sovwUNL_8repartir9messagingNtB7_15PushPullChannel4push0B9_
FN:237,_RNCNvMs_NtCsc3L6sovwUNL_8repartir9messagingNtB6_13PubSubChannel11topic_count0B8_
FN:242,_RNCNvMs_NtCsc3L6sovwUNL_8repartir9messagingNtB6_13PubSubChannel16subscriber_count0B8_
FN:218,_RNCNvMs_NtCsc3L6sovwUNL_8repartir9messagingNtB6_13PubSubChannel7publish0B8_
FN:196,_RNCNvMs_NtCsc3L6sovwUNL_8repartir9messagingNtB6_13PubSubChannel9subscribe0B8_
FN:313,_RNCNCNvMs1_NtCslovhykcEmlY_8repartir9messagingNtB9_15PushPullChannel4push00Bb_
FN:225,_RNCNCNvMs_NtCslovhykcEmlY_8repartir9messagingNtB8_13PubSubChannel7publish00Ba_
FN:201,_RNCNCNvMs_NtCslovhykcEmlY_8repartir9messagingNtB8_13PubSubChannel9subscribe00Ba_
FN:322,_RNCNvMs1_NtCslovhykcEmlY_8repartir9messagingNtB7_15PushPullChannel4pull0B9_
FN:308,_RNCNvMs1_NtCslovhykcEmlY_8repartir9messagingNtB7_15PushPullChannel4push0B9_
FN:237,_RNCNvMs_NtCslovhykcEmlY_8repartir9messagingNtB6_13PubSubChannel11topic_count0B8_
FN:242,_RNCNvMs_NtCslovhykcEmlY_8repartir9messagingNtB6_13PubSubChannel16subscriber_count0B8_
FN:218,_RNCNvMs_NtCslovhykcEmlY_8repartir9messagingNtB6_13PubSubChannel7publish0B8_
FN:196,_RNCNvMs_NtCslovhykcEmlY_8repartir9messagingNtB6_13PubSubChannel9subscribe0B8_
FN:366,_RNCNvNtNtCslovhykcEmlY_8repartir9messaging5testss_17test_pubsub_basic0B7_
FN:457,_RNCNvNtNtCslovhykcEmlY_8repartir9messaging5testss_19test_pubsub_default0B7_
FN:416,_RNCNvNtNtCslovhykcEmlY_8repartir9messaging5testss_19test_pushpull_basic0B7_
FN:495,_RNCNvNtNtCslovhykcEmlY_8repartir9messaging5testss_23test_pubsub_topic_count0B7_
FN:471,_RNCNvNtNtCslovhykcEmlY_8repartir9messaging5testss_26test_pubsub_no_subscribers0B7_
FN:445,_RNCNvNtNtCslovhykcEmlY_8repartir9messaging5testss_26test_pushpull_sender_clone0B7_
FN:400,_RNCNvNtNtCslovhykcEmlY_8repartir9messaging5testss_27test_pubsub_topic_isolation0B7_
FN:523,_RNCNvNtNtCslovhykcEmlY_8repartir9messaging5testss_27test_pushpull_empty_channel0B7_
FN:482,_RNCNvNtNtCslovhykcEmlY_8repartir9messaging5testss_28test_pubsub_subscriber_count0B7_
FN:430,_RNCNvNtNtCslovhykcEmlY_8repartir9messaging5testss_29test_pushpull_single_consumer0B7_
FN:380,_RNCNvNtNtCslovhykcEmlY_8repartir9messaging5testss_32test_pubsub_multiple_subscribers0B7_
FN:340,_RNvNtNtCslovhykcEmlY_8repartir9messaging5testss_17test_message_text
FN:366,_RNvNtNtCslovhykcEmlY_8repartir9messaging5testss_17test_pubsub_basic
FN:347,_RNvNtNtCslovhykcEmlY_8repartir9messaging5testss_18test_message_bytes
FN:457,_RNvNtNtCslovhykcEmlY_8repartir9messaging5testss_19test_pubsub_default
FN:416,_RNvNtNtCslovhykcEmlY_8repartir9messaging5testss_19test_pushpull_basic
FN:354,_RNvNtNtCslovhykcEmlY_8repartir9messaging5testss_21test_message_metadata
FN:508,_RNvNtNtCslovhykcEmlY_8repartir9messaging5testss_23test_message_empty_text
FN:495,_RNvNtNtCslovhykcEmlY_8repartir9messaging5testss_23test_pubsub_topic_count
FN:515,_RNvNtNtCslovhykcEmlY_8repartir9messaging5testss_24test_message_empty_bytes
FN:471,_RNvNtNtCslovhykcEmlY_8repartir9messaging5testss_26test_pubsub_no_subscribers
FN:445,_RNvNtNtCslovhykcEmlY_8repartir9messaging5testss_26test_pushpull_sender_clone
FN:400,_RNvNtNtCslovhykcEmlY_8repartir9messaging5testss_27test_pubsub_topic_isolation
FN:523,_RNvNtNtCslovhykcEmlY_8repartir9messaging5testss_27test_pushpull_empty_channel
FN:482,_RNvNtNtCslovhykcEmlY_8repartir9messaging5testss_28test_pubsub_subscriber_count
FN:430,_RNvNtNtCslovhykcEmlY_8repartir9messaging5testss_29test_pushpull_single_consumer
FN:380,_RNvNtNtCslovhykcEmlY_8repartir9messaging5testss_32test_pubsub_multiple_subscribers
FN:130,_RNvMNtCslovhykcEmlY_8repartir9messagingNtB2_7Message12get_metadata
FN:91,_RNvMNtCslovhykcEmlY_8repartir9messagingNtB2_7Message5bytes
FN:110,_RNvMNtCslovhykcEmlY_8repartir9messagingNtB2_7Message7as_text
FN:121,_RNvMNtCslovhykcEmlY_8repartir9messagingNtB2_7Message8as_bytes
FN:136,_RNvMNtCslovhykcEmlY_8repartir9messagingNtB2_7Message8metadata
FN:294,_RNvMs1_NtCslovhykcEmlY_8repartir9messagingNtB5_15PushPullChannel3new
FN:322,_RNvMs1_NtCslovhykcEmlY_8repartir9messagingNtB5_15PushPullChannel4pull
FN:308,_RNvMs1_NtCslovhykcEmlY_8repartir9messagingNtB5_15PushPullChannel4push
FN:329,_RNvMs1_NtCslovhykcEmlY_8repartir9messagingNtB5_15PushPullChannel6sender
FN:237,_RNvMs_NtCslovhykcEmlY_8repartir9messagingNtB4_13PubSubChannel11topic_count
FN:185,_RNvMs_NtCslovhykcEmlY_8repartir9messagingNtB4_13PubSubChannel13with_capacity
FN:242,_RNvMs_NtCslovhykcEmlY_8repartir9messagingNtB4_13PubSubChannel16subscriber_count
FN:179,_RNvMs_NtCslovhykcEmlY_8repartir9messagingNtB4_13PubSubChannel3new
FN:218,_RNvMs_NtCslovhykcEmlY_8repartir9messagingNtB4_13PubSubChannel7publish
FN:196,_RNvMs_NtCslovhykcEmlY_8repartir9messagingNtB4_13PubSubChannel9subscribe
FN:251,_RNvXs0_NtCslovhykcEmlY_8repartir9messagingNtB5_13PubSubChannelNtNtCs6RpC691fUBl_4core7default7Default7default
FN:100,_RINvMNtCslovhykcEmlY_8repartir9messagingNtB3_7Message13with_metadataReB14_EB5_
FN:82,_RINvMNtCslovhykcEmlY_8repartir9messagingNtB3_7Message4textReEB5_
FNDA:0,_RINvMNtCsc3L6sovwUNL_8repartir9messagingNtB3_7Message13with_metadatappEB5_
FNDA:0,_RINvMNtCsc3L6sovwUNL_8repartir9messagingNtB3_7Message4textpEB5_
FNDA:0,_RNCNCNvMs1_NtCsc3L6sovwUNL_8repartir9messagingNtB9_15PushPullChannel4push00Bb_
FNDA:0,_RNCNCNvMs_NtCsc3L6sovwUNL_8repartir9messagingNtB8_13PubSubChannel7publish00Ba_
FNDA:0,_RNCNCNvMs_NtCsc3L6sovwUNL_8repartir9messagingNtB8_13PubSubChannel9subscribe00Ba_
FNDA:0,_RNCNvMs1_NtCsc3L6sovwUNL_8repartir9messagingNtB7_15PushPullChannel4pull0B9_
FNDA:0,_RNCNvMs1_NtCsc3L6sovwUNL_8repartir9messagingNtB7_15PushPullChannel4push0B9_
FNDA:0,_RNCNvMs_NtCsc3L6sovwUNL_8repartir9messagingNtB6_13PubSubChannel11topic_count0B8_
FNDA:0,_RNCNvMs_NtCsc3L6sovwUNL_8repartir9messagingNtB6_13PubSubChannel16subscriber_count0B8_
FNDA:0,_RNCNvMs_NtCsc3L6sovwUNL_8repartir9messagingNtB6_13PubSubChannel7publish0B8_
FNDA:0,_RNCNvMs_NtCsc3L6sovwUNL_8repartir9messagingNtB6_13PubSubChannel9subscribe0B8_
FNDA:0,_RNCNCNvMs1_NtCslovhykcEmlY_8repartir9messagingNtB9_15PushPullChannel4push00Bb_
FNDA:0,_RNCNCNvMs_NtCslovhykcEmlY_8repartir9messagingNtB8_13PubSubChannel7publish00Ba_
FNDA:8,_RNCNCNvMs_NtCslovhykcEmlY_8repartir9messagingNtB8_13PubSubChannel9subscribe00Ba_
FNDA:7,_RNCNvMs1_NtCslovhykcEmlY_8repartir9messagingNtB7_15PushPullChannel4pull0B9_
FNDA:5,_RNCNvMs1_NtCslovhykcEmlY_8repartir9messagingNtB7_15PushPullChannel4push0B9_
FNDA:3,_RNCNvMs_NtCslovhykcEmlY_8repartir9messagingNtB6_13PubSubChannel11topic_count0B8_
FNDA:4,_RNCNvMs_NtCslovhykcEmlY_8repartir9messagingNtB6_13PubSubChannel16subscriber_count0B8_
FNDA:5,_RNCNvMs_NtCslovhykcEmlY_8repartir9messagingNtB6_13PubSubChannel7publish0B8_
FNDA:10,_RNCNvMs_NtCslovhykcEmlY_8repartir9messagingNtB6_13PubSubChannel9subscribe0B8_
FNDA:1,_RNCNvNtNtCslovhykcEmlY_8repartir9messaging5testss_17test_pubsub_basic0B7_
FNDA:1,_RNCNvNtNtCslovhykcEmlY_8repartir9messaging5testss_19test_pubsub_default0B7_
FNDA:1,_RNCNvNtNtCslovhykcEmlY_8repartir9messaging5testss_19test_pushpull_basic0B7_
FNDA:1,_RNCNvNtNtCslovhykcEmlY_8repartir9messaging5testss_23test_pubsub_topic_count0B7_
FNDA:1,_RNCNvNtNtCslovhykcEmlY_8repartir9messaging5testss_26test_pubsub_no_subscribers0B7_
FNDA:1,_RNCNvNtNtCslovhykcEmlY_8repartir9messaging5testss_26test_pushpull_sender_clone0B7_
FNDA:1,_RNCNvNtNtCslovhykcEmlY_8repartir9messaging5testss_27test_pubsub_topic_isolation0B7_
FNDA:1,_RNCNvNtNtCslovhykcEmlY_8repartir9messaging5testss_27test_pushpull_empty_channel0B7_
FNDA:1,_RNCNvNtNtCslovhykcEmlY_8repartir9messaging5testss_28test_pubsub_subscriber_count0B7_
FNDA:1,_RNCNvNtNtCslovhykcEmlY_8repartir9messaging5testss_29test_pushpull_single_consumer0B7_
FNDA:1,_RNCNvNtNtCslovhykcEmlY_8repartir9messaging5testss_32test_pubsub_multiple_subscribers0B7_
FNDA:1,_RNvNtNtCslovhykcEmlY_8repartir9messaging5testss_17test_message_text
FNDA:1,_RNvNtNtCslovhykcEmlY_8repartir9messaging5testss_17test_pubsub_basic
FNDA:1,_RNvNtNtCslovhykcEmlY_8repartir9messaging5testss_18test_message_bytes
FNDA:1,_RNvNtNtCslovhykcEmlY_8repartir9messaging5testss_19test_pubsub_default
FNDA:1,_RNvNtNtCslovhykcEmlY_8repartir9messaging5testss_19test_pushpull_basic
FNDA:1,_RNvNtNtCslovhykcEmlY_8repartir9messaging5testss_21test_message_metadata
FNDA:1,_RNvNtNtCslovhykcEmlY_8repartir9messaging5testss_23test_message_empty_text
FNDA:1,_RNvNtNtCslovhykcEmlY_8repartir9messaging5testss_23test_pubsub_topic_count
FNDA:1,_RNvNtNtCslovhykcEmlY_8repartir9messaging5testss_24test_message_empty_bytes
FNDA:1,_RNvNtNtCslovhykcEmlY_8repartir9messaging5testss_26test_pubsub_no_subscribers
FNDA:1,_RNvNtNtCslovhykcEmlY_8repartir9messaging5testss_26test_pushpull_sender_clone
FNDA:1,_RNvNtNtCslovhykcEmlY_8repartir9messaging5testss_27test_pubsub_topic_isolation
FNDA:1,_RNvNtNtCslovhykcEmlY_8repartir9messaging5testss_27test_pushpull_empty_channel
FNDA:1,_RNvNtNtCslovhykcEmlY_8repartir9messaging5testss_28test_pubsub_subscriber_count
FNDA:1,_RNvNtNtCslovhykcEmlY_8repartir9messaging5testss_29test_pushpull_single_consumer
FNDA:1,_RNvNtNtCslovhykcEmlY_8repartir9messaging5testss_32test_pubsub_multiple_subscribers
FNDA:3,_RNvMNtCslovhykcEmlY_8repartir9messagingNtB2_7Message12get_metadata
FNDA:2,_RNvMNtCslovhykcEmlY_8repartir9messagingNtB2_7Message5bytes
FNDA:11,_RNvMNtCslovhykcEmlY_8repartir9messagingNtB2_7Message7as_text
FNDA:4,_RNvMNtCslovhykcEmlY_8repartir9messagingNtB2_7Message8as_bytes
FNDA:1,_RNvMNtCslovhykcEmlY_8repartir9messagingNtB2_7Message8metadata
FNDA:4,_RNvMs1_NtCslovhykcEmlY_8repartir9messagingNtB5_15PushPullChannel3new
FNDA:7,_RNvMs1_NtCslovhykcEmlY_8repartir9messagingNtB5_15PushPullChannel4pull
FNDA:5,_RNvMs1_NtCslovhykcEmlY_8repartir9messagingNtB5_15PushPullChannel4push
FNDA:1,_RNvMs1_NtCslovhykcEmlY_8repartir9messagingNtB5_15PushPullChannel6sender
FNDA:3,_RNvMs_NtCslovhykcEmlY_8repartir9messagingNtB4_13PubSubChannel11topic_count
FNDA:7,_RNvMs_NtCslovhykcEmlY_8repartir9messagingNtB4_13PubSubChannel13with_capacity
FNDA:4,_RNvMs_NtCslovhykcEmlY_8repartir9messagingNtB4_13PubSubChannel16subscriber_count
FNDA:7,_RNvMs_NtCslovhykcEmlY_8repartir9messagingNtB4_13PubSubChannel3new
FNDA:5,_RNvMs_NtCslovhykcEmlY_8repartir9messagingNtB4_13PubSubChannel7publish
FNDA:10,_RNvMs_NtCslovhykcEmlY_8repartir9messagingNtB4_13PubSubChannel9subscribe
FNDA:1,_RNvXs0_NtCslovhykcEmlY_8repartir9messagingNtB5_13PubSubChannelNtNtCs6RpC691fUBl_4core7default7Default7default
FNDA:2,_RINvMNtCslovhykcEmlY_8repartir9messagingNtB3_7Message13with_metadataReB14_EB5_
FNDA:14,_RINvMNtCslovhykcEmlY_8repartir9messagingNtB3_7Message4textReEB5_
FNF:54
FNH:52
DA:82,14
DA:83,14
DA:84,14
DA:85,14
DA:86,14
DA:87,14
DA:91,2
DA:92,2
DA:93,2
DA:94,2
DA:95,2
DA:96,2
DA:100,2
DA:101,2
DA:102,2
DA:103,2
DA:110,11
DA:111,11
DA:112,9
DA:113,2
DA:114,2
DA:115,2
DA:117,11
DA:121,4
DA:122,4
DA:123,2
DA:124,2
DA:126,4
DA:130,3
DA:131,3
DA:132,3
DA:136,1
DA:137,1
DA:138,1
DA:179,7
DA:180,7
DA:181,7
DA:185,7
DA:186,7
DA:187,7
DA:188,7
DA:189,7
DA:190,7
DA:191,7
DA:196,10
DA:197,10
DA:198,10
DA:199,10
DA:200,10
DA:201,10
DA:202,8
DA:203,8
DA:204,8
DA:205,10
DA:208,10
DA:209,10
DA:218,5
DA:219,5
DA:221,5
DA:222,4
DA:223,4
DA:224,4
DA:225,0
DA:226,0
DA:227,4
DA:228,4
DA:230,1
DA:231,1
DA:232,1
DA:234,5
DA:237,3
DA:238,3
DA:239,3
DA:242,4
DA:243,4
DA:244,4
DA:245,4
DA:246,4
DA:247,4
DA:251,1
DA:252,1
DA:253,1
DA:294,4
DA:295,4
DA:296,4
DA:297,4
DA:298,4
DA:299,4
DA:300,4
DA:301,4
DA:308,5
DA:309,5
DA:310,5
DA:311,5
DA:312,5
DA:313,0
DA:314,0
DA:315,5
DA:316,5
DA:317,5
DA:322,7
DA:323,7
DA:324,7
DA:325,6
DA:329,1
DA:330,1
DA:331,1
DA:340,1
DA:341,1
DA:342,1
DA:343,1
DA:344,1
DA:347,1
DA:348,1
DA:349,1
DA:350,1
DA:351,1
DA:354,1
DA:355,1
DA:356,1
DA:357,1
DA:359,1
DA:360,1
DA:361,1
DA:362,1
DA:363,1
DA:366,1
DA:367,1
DA:368,1
DA:370,1
DA:371,1
DA:372,1
DA:373,1
DA:375,1
DA:376,1
DA:377,1
DA:380,1
DA:381,1
DA:382,1
DA:383,1
DA:385,1
DA:387,1
DA:388,1
DA:389,1
DA:390,1
DA:392,1
DA:393,1
DA:395,1
DA:396,1
DA:397,1
DA:400,1
DA:401,1
DA:402,1
DA:403,1
DA:405,1
DA:406,1
DA:407,1
DA:408,1
DA:411,1
DA:412,1
DA:413,1
DA:416,1
DA:417,1
DA:419,1
DA:420,1
DA:422,1
DA:423,1
DA:425,1
DA:426,1
DA:427,1
DA:430,1
DA:431,1
DA:434,1
DA:435,1
DA:436,1
DA:439,1
DA:440,1
DA:441,1
DA:442,1
DA:445,1
DA:446,1
DA:447,1
DA:450,1
DA:452,1
DA:453,1
DA:454,1
DA:457,1
DA:458,1
DA:459,1
DA:461,1
DA:462,1
DA:463,1
DA:464,1
DA:466,1
DA:467,1
DA:468,1
DA:471,1
DA:472,1
DA:475,1
DA:476,1
DA:477,1
DA:478,1
DA:479,1
DA:482,1
DA:483,1
DA:485,1
DA:487,1
DA:488,1
DA:490,1
DA:491,1
DA:492,1
DA:495,1
DA:496,1
DA:498,1
DA:500,1
DA:501,1
DA:503,1
DA:504,1
DA:505,1
DA:508,1
DA:509,1
DA:510,1
DA:511,1
DA:512,1
DA:515,1
DA:516,1
DA:517,1
DA:519,1
DA:520,1
DA:523,1
DA:526,1
DA:529,1
DA:530,1
DA:531,1
BRF:0
BRH:0
LF:265
LH:259
end_of_record
SF:/home/noah/src/repartir/src/scheduler/mod.rs
FN:140,_RNCNvMs4_NtCsc3L6sovwUNL_8repartir9schedulerNtB7_9Scheduler10get_result0CsdXWUe7mQ55k_17integration_tests
FN:133,_RNCNvMs4_NtCsc3L6sovwUNL_8repartir9schedulerNtB7_9Scheduler12store_result0CsdXWUe7mQ55k_17integration_tests
FN:128,_RNCNvMs4_NtCsc3L6sovwUNL_8repartir9schedulerNtB7_9Scheduler13pending_count0CsdXWUe7mQ55k_17integration_tests
FN:150,_RNCNvMs4_NtCsc3L6sovwUNL_8repartir9schedulerNtB7_9Scheduler5clear0CsdXWUe7mQ55k_17integration_tests
FN:99,_RNCNvMs4_NtCsc3L6sovwUNL_8repartir9schedulerNtB7_9Scheduler6submit0CsdXWUe7mQ55k_17integration_tests
FN:122,_RNCNvMs4_NtCsc3L6sovwUNL_8repartir9schedulerNtB7_9Scheduler9next_task0CsdXWUe7mQ55k_17integration_tests
FN:133,_RNCNvMs4_NtCsc3L6sovwUNL_8repartir9schedulerNtB7_9Scheduler12store_result0B9_
FN:122,_RNCNvMs4_NtCsc3L6sovwUNL_8repartir9schedulerNtB7_9Scheduler9next_task0B9_
FN:23,_RNvMNtCsc3L6sovwUNL_8repartir9schedulerNtB2_8WorkerId3new
FN:140,_RNvMs4_NtCsc3L6sovwUNL_8repartir9schedulerNtB5_9Scheduler10get_result
FN:133,_RNvMs4_NtCsc3L6sovwUNL_8repartir9schedulerNtB5_9Scheduler12store_result
FN:128,_RNvMs4_NtCsc3L6sovwUNL_8repartir9schedulerNtB5_9Scheduler13pending_count
FN:145,_RNvMs4_NtCsc3L6sovwUNL_8repartir9schedulerNtB5_9Scheduler13remove_result
FN:85,_RNvMs4_NtCsc3L6sovwUNL_8repartir9schedulerNtB5_9Scheduler13with_capacity
FN:79,_RNvMs4_NtCsc3L6sovwUNL_8repartir9schedulerNtB5_9Scheduler3new
FN:150,_RNvMs4_NtCsc3L6sovwUNL_8repartir9schedulerNtB5_9Scheduler5clear
FN:99,_RNvMs4_NtCsc3L6sovwUNL_8repartir9schedulerNtB5_9Scheduler6submit
FN:122,_RNvMs4_NtCsc3L6sovwUNL_8repartir9schedulerNtB5_9Scheduler9next_task
FN:43,_RNvXs0_NtCsc3L6sovwUNL_8repartir9schedulerNtB5_12PriorityTaskNtNtCs6RpC691fUBl_4core3cmp9PartialEq2eq
FN:51,_RNvXs2_NtCsc3L6sovwUNL_8repartir9schedulerNtB5_12PriorityTaskNtNtCs6RpC691fUBl_4core3cmp10PartialOrd11partial_cmp
FN:57,_RNvXs3_NtCsc3L6sovwUNL_8repartir9schedulerNtB5_12PriorityTaskNtNtCs6RpC691fUBl_4core3cmp3Ord3cmp
FN:158,_RNvXs5_NtCsc3L6sovwUNL_8repartir9schedulerNtB5_9SchedulerNtNtCs6RpC691fUBl_4core7default7Default7default
FN:29,_RNvXs_NtCsc3L6sovwUNL_8repartir9schedulerNtB4_8WorkerIdNtNtCs6RpC691fUBl_4core7default7Default7default
FN:140,_RNCNvMs4_NtCsc3L6sovwUNL_8repartir9schedulerNtB7_9Scheduler10get_result0B9_
FN:128,_RNCNvMs4_NtCsc3L6sovwUNL_8repartir9schedulerNtB7_9Scheduler13pending_count0B9_
FN:145,_RNCNvMs4_NtCsc3L6sovwUNL_8repartir9schedulerNtB7_9Scheduler13remove_result0B9_
FN:150,_RNCNvMs4_NtCsc3L6sovwUNL_8repartir9schedulerNtB7_9Scheduler5clear0B9_
FN:99,_RNCNvMs4_NtCsc3L6sovwUNL_8repartir9schedulerNtB7_9Scheduler6submit0B9_
FN:128,_RNCNvMs4_NtCsc3L6sovwUNL_8repartir9schedulerNtB7_9Scheduler13pending_count0CskNcmEebnRvf_14property_tests
FN:99,_RNCNvMs4_NtCsc3L6sovwUNL_8repartir9schedulerNtB7_9Scheduler6submit0CskNcmEebnRvf_14property_tests
FN:122,_RNCNvMs4_NtCsc3L6sovwUNL_8repartir9schedulerNtB7_9Scheduler9next_task0CskNcmEebnRvf_14property_tests
FN:140,_RNCNvMs4_NtCslovhykcEmlY_8repartir9schedulerNtB7_9Scheduler10get_result0B9_
FN:133,_RNCNvMs4_NtCslovhykcEmlY_8repartir9schedulerNtB7_9Scheduler12store_result0B9_
FN:128,_RNCNvMs4_NtCslovhykcEmlY_8repartir9schedulerNtB7_9Scheduler13pending_count0B9_
FN:145,_RNCNvMs4_NtCslovhykcEmlY_8repartir9schedulerNtB7_9Scheduler13remove_result0B9_
FN:150,_RNCNvMs4_NtCslovhykcEmlY_8repartir9schedulerNtB7_9Scheduler5clear0B9_
FN:99,_RNCNvMs4_NtCslovhykcEmlY_8repartir9schedulerNtB7_9Scheduler6submit0B9_
FN:122,_RNCNvMs4_NtCslovhykcEmlY_8repartir9schedulerNtB7_9Scheduler9next_task0B9_
FN:297,_RNCNvNtNtCslovhykcEmlY_8repartir9scheduler5testss_20test_scheduler_clear0B7_
FN:235,_RNCNvNtNtCslovhykcEmlY_8repartir9scheduler5testss_25test_scheduler_queue_full0B7_
FN:337,_RNCNvNtNtCslovhykcEmlY_8repartir9scheduler5testss_26test_scheduler_empty_queue0B7_
FN:272,_RNCNvNtNtCslovhykcEmlY_8repartir9scheduler5testss_29test_scheduler_result_storage0B7_
FN:171,_RNCNvNtNtCslovhykcEmlY_8repartir9scheduler5testss_30test_scheduler_submit_and_next0B7_
FN:191,_RNCNvNtNtCslovhykcEmlY_8repartir9scheduler5testss_32test_scheduler_priority_ordering0B7_
FN:356,_RNCNvNtNtCslovhykcEmlY_8repartir9scheduler5testss_33test_scheduler_clear_with_results0B7_
FN:344,_RNCNvNtNtCslovhykcEmlY_8repartir9scheduler5testss_33test_scheduler_nonexistent_result0B7_
FN:297,_RNvNtNtCslovhykcEmlY_8repartir9scheduler5testss_20test_scheduler_clear
FN:329,_RNvNtNtCslovhykcEmlY_8repartir9scheduler5testss_22test_scheduler_default
FN:322,_RNvNtNtCslovhykcEmlY_8repartir9scheduler5testss_22test_worker_id_default
FN:315,_RNvNtNtCslovhykcEmlY_8repartir9scheduler5testss_23test_worker_id_creation
FN:235,_RNvNtNtCslovhykcEmlY_8repartir9scheduler5testss_25test_scheduler_queue_full
FN:337,_RNvNtNtCslovhykcEmlY_8repartir9scheduler5testss_26test_scheduler_empty_queue
FN:272,_RNvNtNtCslovhykcEmlY_8repartir9scheduler5testss_29test_scheduler_result_storage
FN:171,_RNvNtNtCslovhykcEmlY_8repartir9scheduler5testss_30test_scheduler_submit_and_next
FN:191,_RNvNtNtCslovhykcEmlY_8repartir9scheduler5testss_32test_scheduler_priority_ordering
FN:356,_RNvNtNtCslovhykcEmlY_8repartir9scheduler5testss_33test_scheduler_clear_with_results
FN:344,_RNvNtNtCslovhykcEmlY_8repartir9scheduler5testss_33test_scheduler_nonexistent_result
FN:43,_RNvXs0_NtCslovhykcEmlY_8repartir9schedulerNtB5_12PriorityTaskNtNtCs6RpC691fUBl_4core3cmp9PartialEq2eq
FN:23,_RNvMNtCslovhykcEmlY_8repartir9schedulerNtB2_8WorkerId3new
FN:140,_RNvMs4_NtCslovhykcEmlY_8repartir9schedulerNtB5_9Scheduler10get_result
FN:133,_RNvMs4_NtCslovhykcEmlY_8repartir9schedulerNtB5_9Scheduler12store_result
FN:128,_RNvMs4_NtCslovhykcEmlY_8repartir9schedulerNtB5_9Scheduler13pending_count
FN:145,_RNvMs4_NtCslovhykcEmlY_8repartir9schedulerNtB5_9Scheduler13remove_result
FN:85,_RNvMs4_NtCslovhykcEmlY_8repartir9schedulerNtB5_9Scheduler13with_capacity
FN:79,_RNvMs4_NtCslovhykcEmlY_8repartir9schedulerNtB5_9Scheduler3new
FN:150,_RNvMs4_NtCslovhykcEmlY_8repartir9schedulerNtB5_9Scheduler5clear
FN:99,_RNvMs4_NtCslovhykcEmlY_8repartir9schedulerNtB5_9Scheduler6submit
FN:122,_RNvMs4_NtCslovhykcEmlY_8repartir9schedulerNtB5_9Scheduler9next_task
FN:51,_RNvXs2_NtCslovhykcEmlY_8repartir9schedulerNtB5_12PriorityTaskNtNtCs6RpC691fUBl_4core3cmp10PartialOrd11partial_cmp
FN:57,_RNvXs3_NtCslovhykcEmlY_8repartir9schedulerNtB5_12PriorityTaskNtNtCs6RpC691fUBl_4core3cmp3Ord3cmp
FN:158,_RNvXs5_NtCslovhykcEmlY_8repartir9schedulerNtB5_9SchedulerNtNtCs6RpC691fUBl_4core7default7Default7default
FN:29,_RNvXs_NtCslovhykcEmlY_8repartir9schedulerNtB4_8WorkerIdNtNtCs6RpC691fUBl_4core7default7Default7default
FNDA:5,_RNCNvMs4_NtCsc3L6sovwUNL_8repartir9schedulerNtB7_9Scheduler10get_result0CsdXWUe7mQ55k_17integration_tests
FNDA:5,_RNCNvMs4_NtCsc3L6sovwUNL_8repartir9schedulerNtB7_9Scheduler12store_result0CsdXWUe7mQ55k_17integration_tests
FNDA:2,_RNCNvMs4_NtCsc3L6sovwUNL_8repartir9schedulerNtB7_9Scheduler13pending_count0CsdXWUe7mQ55k_17integration_tests
FNDA:1,_RNCNvMs4_NtCsc3L6sovwUNL_8repartir9schedulerNtB7_9Scheduler5clear0CsdXWUe7mQ55k_17integration_tests
FNDA:23,_RNCNvMs4_NtCsc3L6sovwUNL_8repartir9schedulerNtB7_9Scheduler6submit0CsdXWUe7mQ55k_17integration_tests
FNDA:18,_RNCNvMs4_NtCsc3L6sovwUNL_8repartir9schedulerNtB7_9Scheduler9next_task0CsdXWUe7mQ55k_17integration_tests
FNDA:0,_RNCNvMs4_NtCsc3L6sovwUNL_8repartir9schedulerNtB7_9Scheduler12store_result0B9_
FNDA:0,_RNCNvMs4_NtCsc3L6sovwUNL_8repartir9schedulerNtB7_9Scheduler9next_task0B9_
FNDA:0,_RNvMNtCsc3L6sovwUNL_8repartir9schedulerNtB2_8WorkerId3new
FNDA:5,_RNvMs4_NtCsc3L6sovwUNL_8repartir9schedulerNtB5_9Scheduler10get_result
FNDA:5,_RNvMs4_NtCsc3L6sovwUNL_8repartir9schedulerNtB5_9Scheduler12store_result
FNDA:12446,_RNvMs4_NtCsc3L6sovwUNL_8repartir9schedulerNtB5_9Scheduler13pending_count
FNDA:0,_RNvMs4_NtCsc3L6sovwUNL_8repartir9schedulerNtB5_9Scheduler13remove_result
FNDA:772,_RNvMs4_NtCsc3L6sovwUNL_8repartir9schedulerNtB5_9Scheduler13with_capacity
FNDA:3,_RNvMs4_NtCsc3L6sovwUNL_8repartir9schedulerNtB5_9Scheduler3new
FNDA:1,_RNvMs4_NtCsc3L6sovwUNL_8repartir9schedulerNtB5_9Scheduler5clear
FNDA:32959,_RNvMs4_NtCsc3L6sovwUNL_8repartir9schedulerNtB5_9Scheduler6submit
FNDA:21022,_RNvMs4_NtCsc3L6sovwUNL_8repartir9schedulerNtB5_9Scheduler9next_task
FNDA:0,_RNvXs0_NtCsc3L6sovwUNL_8repartir9schedulerNtB5_12PriorityTaskNtNtCs6RpC691fUBl_4core3cmp9PartialEq2eq
FNDA:112293,_RNvXs2_NtCsc3L6sovwUNL_8repartir9schedulerNtB5_12PriorityTaskNtNtCs6RpC691fUBl_4core3cmp10PartialOrd11partial_cmp
FNDA:112293,_RNvXs3_NtCsc3L6sovwUNL_8repartir9schedulerNtB5_12PriorityTaskNtNtCs6RpC691fUBl_4core3cmp3Ord3cmp
FNDA:0,_RNvXs5_NtCsc3L6sovwUNL_8repartir9schedulerNtB5_9SchedulerNtNtCs6RpC691fUBl_4core7default7Default7default
FNDA:0,_RNvXs_NtCsc3L6sovwUNL_8repartir9schedulerNtB4_8WorkerIdNtNtCs6RpC691fUBl_4core7default7Default7default
FNDA:0,_RNCNvMs4_NtCsc3L6sovwUNL_8repartir9schedulerNtB7_9Scheduler10get_result0B9_
FNDA:0,_RNCNvMs4_NtCsc3L6sovwUNL_8repartir9schedulerNtB7_9Scheduler13pending_count0B9_
FNDA:0,_RNCNvMs4_NtCsc3L6sovwUNL_8repartir9schedulerNtB7_9Scheduler13remove_result0B9_
FNDA:0,_RNCNvMs4_NtCsc3L6sovwUNL_8repartir9schedulerNtB7_9Scheduler5clear0B9_
FNDA:0,_RNCNvMs4_NtCsc3L6sovwUNL_8repartir9schedulerNtB7_9Scheduler6submit0B9_
FNDA:12444,_RNCNvMs4_NtCsc3L6sovwUNL_8repartir9schedulerNtB7_9Scheduler13pending_count0CskNcmEebnRvf_14property_tests
FNDA:32936,_RNCNvMs4_NtCsc3L6sovwUNL_8repartir9schedulerNtB7_9Scheduler6submit0CskNcmEebnRvf_14property_tests
FNDA:21004,_RNCNvMs4_NtCsc3L6sovwUNL_8repartir9schedulerNtB7_9Scheduler9next_task0CskNcmEebnRvf_14property_tests
FNDA:6,_RNCNvMs4_NtCslovhykcEmlY_8repartir9schedulerNtB7_9Scheduler10get_result0B9_
FNDA:3,_RNCNvMs4_NtCslovhykcEmlY_8repartir9schedulerNtB7_9Scheduler12store_result0B9_
FNDA:5,_RNCNvMs4_NtCslovhykcEmlY_8repartir9schedulerNtB7_9Scheduler13pending_count0B9_
FNDA:3,_RNCNvMs4_NtCslovhykcEmlY_8repartir9schedulerNtB7_9Scheduler13remove_result0B9_
FNDA:4,_RNCNvMs4_NtCslovhykcEmlY_8repartir9schedulerNtB7_9Scheduler5clear0B9_
FNDA:9,_RNCNvMs4_NtCslovhykcEmlY_8repartir9schedulerNtB7_9Scheduler6submit0B9_
FNDA:8,_RNCNvMs4_NtCslovhykcEmlY_8repartir9schedulerNtB7_9Scheduler9next_task0B9_
FNDA:1,_RNCNvNtNtCslovhykcEmlY_8repartir9scheduler5testss_20test_scheduler_clear0B7_
FNDA:1,_RNCNvNtNtCslovhykcEmlY_8repartir9scheduler5testss_25test_scheduler_queue_full0B7_
FNDA:1,_RNCNvNtNtCslovhykcEmlY_8repartir9scheduler5testss_26test_scheduler_empty_queue0B7_
FNDA:1,_RNCNvNtNtCslovhykcEmlY_8repartir9scheduler5testss_29test_scheduler_result_storage0B7_
FNDA:1,_RNCNvNtNtCslovhykcEmlY_8repartir9scheduler5testss_30test_scheduler_submit_and_next0B7_
FNDA:1,_RNCNvNtNtCslovhykcEmlY_8repartir9scheduler5testss_32test_scheduler_priority_ordering0B7_
FNDA:1,_RNCNvNtNtCslovhykcEmlY_8repartir9scheduler5testss_33test_scheduler_clear_with_results0B7_
FNDA:1,_RNCNvNtNtCslovhykcEmlY_8repartir9scheduler5testss_33test_scheduler_nonexistent_result0B7_
FNDA:1,_RNvNtNtCslovhykcEmlY_8repartir9scheduler5testss_20test_scheduler_clear
FNDA:1,_RNvNtNtCslovhykcEmlY_8repartir9scheduler5testss_22test_scheduler_default
FNDA:1,_RNvNtNtCslovhykcEmlY_8repartir9scheduler5testss_22test_worker_id_default
FNDA:1,_RNvNtNtCslovhykcEmlY_8repartir9scheduler5testss_23test_worker_id_creation
FNDA:1,_RNvNtNtCslovhykcEmlY_8repartir9scheduler5testss_25test_scheduler_queue_full
FNDA:1,_RNvNtNtCslovhykcEmlY_8repartir9scheduler5testss_26test_scheduler_empty_queue
FNDA:1,_RNvNtNtCslovhykcEmlY_8repartir9scheduler5testss_29test_scheduler_result_storage
FNDA:1,_RNvNtNtCslovhykcEmlY_8repartir9scheduler5testss_30test_scheduler_submit_and_next
FNDA:1,_RNvNtNtCslovhykcEmlY_8repartir9scheduler5testss_32test_scheduler_priority_ordering
FNDA:1,_RNvNtNtCslovhykcEmlY_8repartir9scheduler5testss_33test_scheduler_clear_with_results
FNDA:1,_RNvNtNtCslovhykcEmlY_8repartir9scheduler5testss_33test_scheduler_nonexistent_result
FNDA:0,_RNvXs0_NtCslovhykcEmlY_8repartir9schedulerNtB5_12PriorityTaskNtNtCs6RpC691fUBl_4core3cmp9PartialEq2eq
FNDA:4,_RNvMNtCslovhykcEmlY_8repartir9schedulerNtB2_8WorkerId3new
FNDA:6,_RNvMs4_NtCslovhykcEmlY_8repartir9schedulerNtB5_9Scheduler10get_result
FNDA:3,_RNvMs4_NtCslovhykcEmlY_8repartir9schedulerNtB5_9Scheduler12store_result
FNDA:5,_RNvMs4_NtCslovhykcEmlY_8repartir9schedulerNtB5_9Scheduler13pending_count
FNDA:3,_RNvMs4_NtCslovhykcEmlY_8repartir9schedulerNtB5_9Scheduler13remove_result
FNDA:12,_RNvMs4_NtCslovhykcEmlY_8repartir9schedulerNtB5_9Scheduler13with_capacity
FNDA:9,_RNvMs4_NtCslovhykcEmlY_8repartir9schedulerNtB5_9Scheduler3new
FNDA:4,_RNvMs4_NtCslovhykcEmlY_8repartir9schedulerNtB5_9Scheduler5clear
FNDA:9,_RNvMs4_NtCslovhykcEmlY_8repartir9schedulerNtB5_9Scheduler6submit
FNDA:8,_RNvMs4_NtCslovhykcEmlY_8repartir9schedulerNtB5_9Scheduler9next_task
FNDA:4,_RNvXs2_NtCslovhykcEmlY_8repartir9schedulerNtB5_12PriorityTaskNtNtCs6RpC691fUBl_4core3cmp10PartialOrd11partial_cmp
FNDA:4,_RNvXs3_NtCslovhykcEmlY_8repartir9schedulerNtB5_12PriorityTaskNtNtCs6RpC691fUBl_4core3cmp3Ord3cmp
FNDA:1,_RNvXs5_NtCslovhykcEmlY_8repartir9schedulerNtB5_9SchedulerNtNtCs6RpC691fUBl_4core7default7Default7default
FNDA:1,_RNvXs_NtCslovhykcEmlY_8repartir9schedulerNtB4_8WorkerIdNtNtCs6RpC691fUBl_4core7default7Default7default
FNF:41
FNH:40
DA:23,4
DA:24,4
DA:25,4
DA:29,1
DA:30,1
DA:31,1
DA:43,0
DA:44,0
DA:45,0
DA:51,112297
DA:52,112297
DA:53,112297
DA:57,112297
DA:59,112297
DA:60,112297
DA:79,12
DA:80,12
DA:81,12
DA:85,784
DA:86,784
DA:87,784
DA:88,784
DA:89,784
DA:90,784
DA:91,784
DA:92,784
DA:99,32968
DA:100,32968
DA:101,32968
DA:104,32968
DA:106,32968
DA:107,6774
DA:108,6774
DA:109,6774
DA:110,26194
DA:112,26194
DA:113,26194
DA:116,26194
DA:117,32968
DA:122,21030
DA:123,21030
DA:124,21030
DA:125,21030
DA:128,12451
DA:129,12451
DA:130,12451
DA:133,8
DA:134,8
DA:135,8
DA:136,8
DA:137,8
DA:140,11
DA:141,11
DA:142,11
DA:145,3
DA:146,3
DA:147,3
DA:150,5
DA:151,5
DA:152,5
DA:153,5
DA:154,5
DA:158,1
DA:159,1
DA:160,1
DA:171,1
DA:172,1
DA:174,1
DA:175,1
DA:176,1
DA:177,1
DA:178,1
DA:179,1
DA:181,1
DA:182,1
DA:184,1
DA:185,1
DA:186,1
DA:187,1
DA:188,1
DA:191,1
DA:192,1
DA:195,1
DA:196,1
DA:197,1
DA:198,1
DA:199,1
DA:200,1
DA:201,1
DA:203,1
DA:204,1
DA:205,1
DA:206,1
DA:207,1
DA:208,1
DA:209,1
DA:211,1
DA:212,1
DA:213,1
DA:214,1
DA:215,1
DA:216,1
DA:217,1
DA:219,1
DA:220,1
DA:221,1
DA:224,1
DA:225,1
DA:227,1
DA:228,1
DA:230,1
DA:231,1
DA:232,1
DA:235,1
DA:236,1
DA:238,1
DA:239,1
DA:240,1
DA:241,1
DA:242,1
DA:243,1
DA:245,1
DA:246,1
DA:247,1
DA:248,1
DA:249,1
DA:250,1
DA:252,1
DA:253,1
DA:254,1
DA:255,1
DA:256,1
DA:257,1
DA:259,1
DA:260,1
DA:263,1
DA:264,1
DA:265,1
DA:266,1
DA:267,1
DA:268,1
DA:269,1
DA:272,1
DA:273,1
DA:275,1
DA:276,1
DA:277,1
DA:279,1
DA:280,1
DA:281,1
DA:284,1
DA:286,1
DA:287,1
DA:288,1
DA:290,1
DA:291,1
DA:293,1
DA:294,1
DA:297,1
DA:298,1
DA:300,1
DA:301,1
DA:302,1
DA:303,1
DA:304,1
DA:305,1
DA:307,1
DA:308,1
DA:310,1
DA:311,1
DA:312,1
DA:315,1
DA:316,1
DA:317,1
DA:318,1
DA:319,1
DA:322,1
DA:323,1
DA:324,1
DA:325,1
DA:326,1
DA:329,1
DA:330,1
DA:331,1
DA:333,1
DA:334,1
DA:337,1
DA:338,1
DA:339,1
DA:340,1
DA:341,1
DA:344,1
DA:345,1
DA:346,1
DA:348,1
DA:349,1
DA:351,1
DA:352,1
DA:353,1
DA:356,1
DA:357,1
DA:359,1
DA:360,1
DA:361,1
DA:363,1
DA:364,1
DA:365,1
DA:368,1
DA:369,1
DA:371,1
DA:372,1
BRF:0
BRH:0
LF:235
LH:232
end_of_record
SF:/home/noah/src/repartir/src/task/mod.rs
FN:253,_RINvMs3_NtCsc3L6sovwUNL_8repartir4taskNtB6_11TaskBuilder3argNtNtCs6juDKDKeRkf_5alloc6string6StringECsdXWUe7mQ55k_17integration_tests
FN:253,_RINvMs3_NtCsc3L6sovwUNL_8repartir4taskNtB6_11TaskBuilder3argReECsdXWUe7mQ55k_17integration_tests
FN:239,_RINvMs3_NtCsc3L6sovwUNL_8repartir4taskNtB6_11TaskBuilder6binaryReECsdXWUe7mQ55k_17integration_tests
FN:267,_RINvMs3_NtCsc3L6sovwUNL_8repartir4taskNtB6_11TaskBuilder7env_varReB10_ECsdXWUe7mQ55k_17integration_tests
FN:387,_RNCNvMs3_NtCsc3L6sovwUNL_8repartir4taskNtB7_11TaskBuilder5build0B9_
FN:526,_RNCNvMs4_NtCsc3L6sovwUNL_8repartir4taskNtB7_15ExecutionResult10stderr_str0B9_
FN:515,_RNCNvMs4_NtCsc3L6sovwUNL_8repartir4taskNtB7_15ExecutionResult10stdout_str0B9_
FN:22,_RNvMNtCsc3L6sovwUNL_8repartir4taskNtB2_6TaskId3new
FN:28,_RNvMNtCsc3L6sovwUNL_8repartir4taskNtB2_6TaskId7as_uuid
FN:127,_RNvMs1_NtCsc3L6sovwUNL_8repartir4taskNtB5_4Task2id
FN:145,_RNvMs1_NtCsc3L6sovwUNL_8repartir4taskNtB5_4Task3env
FN:139,_RNvMs1_NtCsc3L6sovwUNL_8repartir4taskNtB5_4Task4args
FN:133,_RNvMs1_NtCsc3L6sovwUNL_8repartir4taskNtB5_4Task6binary
FN:151,_RNvMs1_NtCsc3L6sovwUNL_8repartir4taskNtB5_4Task7backend
FN:121,_RNvMs1_NtCsc3L6sovwUNL_8repartir4taskNtB5_4Task7builder
FN:163,_RNvMs1_NtCsc3L6sovwUNL_8repartir4taskNtB5_4Task7timeout
FN:157,_RNvMs1_NtCsc3L6sovwUNL_8repartir4taskNtB5_4Task8priority
FN:260,_RNvMs3_NtCsc3L6sovwUNL_8repartir4taskNtB5_11TaskBuilder3env
FN:246,_RNvMs3_NtCsc3L6sovwUNL_8repartir4taskNtB5_11TaskBuilder4args
FN:377,_RNvMs3_NtCsc3L6sovwUNL_8repartir4taskNtB5_11TaskBuilder5build
FN:274,_RNvMs3_NtCsc3L6sovwUNL_8repartir4taskNtB5_11TaskBuilder7backend
FN:288,_RNvMs3_NtCsc3L6sovwUNL_8repartir4taskNtB5_11TaskBuilder7timeout
FN:281,_RNvMs3_NtCsc3L6sovwUNL_8repartir4taskNtB5_11TaskBuilder8priority
FN:486,_RNvMs4_NtCsc3L6sovwUNL_8repartir4taskNtB5_15ExecutionResult10is_success
FN:524,_RNvMs4_NtCsc3L6sovwUNL_8repartir4taskNtB5_15ExecutionResult10stderr_str
FN:513,_RNvMs4_NtCsc3L6sovwUNL_8repartir4taskNtB5_15ExecutionResult10stdout_str
FN:435,_RNvMs4_NtCsc3L6sovwUNL_8repartir4taskNtB5_15ExecutionResult3new
FN:498,_RNvMs4_NtCsc3L6sovwUNL_8repartir4taskNtB5_15ExecutionResult6stderr
FN:492,_RNvMs4_NtCsc3L6sovwUNL_8repartir4taskNtB5_15ExecutionResult6stdout
FN:474,_RNvMs4_NtCsc3L6sovwUNL_8repartir4taskNtB5_15ExecutionResult7task_id
FN:504,_RNvMs4_NtCsc3L6sovwUNL_8repartir4taskNtB5_15ExecutionResult8duration
FN:480,_RNvMs4_NtCsc3L6sovwUNL_8repartir4taskNtB5_15ExecutionResult9exit_code
FN:40,_RNvXs0_NtCsc3L6sovwUNL_8repartir4taskNtB5_6TaskIdNtNtCs6RpC691fUBl_4core3fmt7Display3fmt
FN:216,_RNvXs2_NtCsc3L6sovwUNL_8repartir4taskNtB5_11TaskBuilderNtNtCs6RpC691fUBl_4core7default7Default7default
FN:34,_RNvXs_NtCsc3L6sovwUNL_8repartir4taskNtB4_6TaskIdNtNtCs6RpC691fUBl_4core7default7Default7default
FN:253,_RINvMs3_NtCsc3L6sovwUNL_8repartir4taskNtB6_11TaskBuilder3argpEB8_
FN:239,_RINvMs3_NtCsc3L6sovwUNL_8repartir4taskNtB6_11TaskBuilder6binarypEB8_
FN:267,_RINvMs3_NtCsc3L6sovwUNL_8repartir4taskNtB6_11TaskBuilder7env_varppEB8_
FN:390,_RNCNvMs3_NtCsc3L6sovwUNL_8repartir4taskNtB7_11TaskBuilder5builds_0B9_
FN:253,_RINvMs3_NtCsc3L6sovwUNL_8repartir4taskNtB6_11TaskBuilder3argNtNtCs6juDKDKeRkf_5alloc6string6StringECskNcmEebnRvf_14property_tests
FN:239,_RINvMs3_NtCsc3L6sovwUNL_8repartir4taskNtB6_11TaskBuilder6binaryReECskNcmEebnRvf_14property_tests
FN:387,_RNCNvMs3_NtCslovhykcEmlY_8repartir4taskNtB7_11TaskBuilder5build0B9_
FN:526,_RNCNvMs4_NtCslovhykcEmlY_8repartir4taskNtB7_15ExecutionResult10stderr_str0B9_
FN:515,_RNCNvMs4_NtCslovhykcEmlY_8repartir4taskNtB7_15ExecutionResult10stdout_str0B9_
FN:22,_RNvMNtCslovhykcEmlY_8repartir4taskNtB2_6TaskId3new
FN:28,_RNvMNtCslovhykcEmlY_8repartir4taskNtB2_6TaskId7as_uuid
FN:127,_RNvMs1_NtCslovhykcEmlY_8repartir4taskNtB5_4Task2id
FN:145,_RNvMs1_NtCslovhykcEmlY_8repartir4taskNtB5_4Task3env
FN:139,_RNvMs1_NtCslovhykcEmlY_8repartir4taskNtB5_4Task4args
FN:133,_RNvMs1_NtCslovhykcEmlY_8repartir4taskNtB5_4Task6binary
FN:151,_RNvMs1_NtCslovhykcEmlY_8repartir4taskNtB5_4Task7backend
FN:121,_RNvMs1_NtCslovhykcEmlY_8repartir4taskNtB5_4Task7builder
FN:163,_RNvMs1_NtCslovhykcEmlY_8repartir4taskNtB5_4Task7timeout
FN:157,_RNvMs1_NtCslovhykcEmlY_8repartir4taskNtB5_4Task8priority
FN:260,_RNvMs3_NtCslovhykcEmlY_8repartir4taskNtB5_11TaskBuilder3env
FN:246,_RNvMs3_NtCslovhykcEmlY_8repartir4taskNtB5_11TaskBuilder4args
FN:377,_RNvMs3_NtCslovhykcEmlY_8repartir4taskNtB5_11TaskBuilder5build
FN:274,_RNvMs3_NtCslovhykcEmlY_8repartir4taskNtB5_11TaskBuilder7backend
FN:288,_RNvMs3_NtCslovhykcEmlY_8repartir4taskNtB5_11TaskBuilder7timeout
FN:281,_RNvMs3_NtCslovhykcEmlY_8repartir4taskNtB5_11TaskBuilder8priority
FN:486,_RNvMs4_NtCslovhykcEmlY_8repartir4taskNtB5_15ExecutionResult10is_success
FN:524,_RNvMs4_NtCslovhykcEmlY_8repartir4taskNtB5_15ExecutionResult10stderr_str
FN:513,_RNvMs4_NtCslovhykcEmlY_8repartir4taskNtB5_15ExecutionResult10stdout_str
FN:435,_RNvMs4_NtCslovhykcEmlY_8repartir4taskNtB5_15ExecutionResult3new
FN:498,_RNvMs4_NtCslovhykcEmlY_8repartir4taskNtB5_15ExecutionResult6stderr
FN:492,_RNvMs4_NtCslovhykcEmlY_8repartir4taskNtB5_15ExecutionResult6stdout
FN:474,_RNvMs4_NtCslovhykcEmlY_8repartir4taskNtB5_15ExecutionResult7task_id
FN:504,_RNvMs4_NtCslovhykcEmlY_8repartir4taskNtB5_15ExecutionResult8duration
FN:480,_RNvMs4_NtCslovhykcEmlY_8repartir4taskNtB5_15ExecutionResult9exit_code
FN:40,_RNvXs0_NtCslovhykcEmlY_8repartir4taskNtB5_6TaskIdNtNtCs6RpC691fUBl_4core3fmt7Display3fmt
FN:216,_RNvXs2_NtCslovhykcEmlY_8repartir4taskNtB5_11TaskBuilderNtNtCs6RpC691fUBl_4core7default7Default7default
FN:34,_RNvXs_NtCslovhykcEmlY_8repartir4taskNtB4_6TaskIdNtNtCs6RpC691fUBl_4core7default7Default7default
FN:253,_RINvMs3_NtCslovhykcEmlY_8repartir4taskNtB6_11TaskBuilder3argReEB8_
FN:239,_RINvMs3_NtCslovhykcEmlY_8repartir4taskNtB6_11TaskBuilder6binaryReEB8_
FN:267,_RINvMs3_NtCslovhykcEmlY_8repartir4taskNtB6_11TaskBuilder7env_varReB10_EB8_
FN:685,_RNvNtNtCslovhykcEmlY_8repartir4task5testss_16test_backend_cpu
FN:551,_RNvNtNtCslovhykcEmlY_8repartir4task5testss_17test_task_builder
FN:610,_RNvNtNtCslovhykcEmlY_8repartir4task5testss_20test_task_id_as_uuid
FN:596,_RNvNtNtCslovhykcEmlY_8repartir4task5testss_20test_task_id_default
FN:602,_RNvNtNtCslovhykcEmlY_8repartir4task5testss_20test_task_id_display
FN:580,_RNvNtNtCslovhykcEmlY_8repartir4task5testss_21test_execution_result
FN:679,_RNvNtNtCslovhykcEmlY_8repartir4task5testss_21test_priority_default
FN:544,_RNvNtNtCslovhykcEmlY_8repartir4task5testss_21test_task_id_creation
FN:574,_RNvNtNtCslovhykcEmlY_8repartir4task5testss_22test_priority_ordering
FN:617,_RNvNtNtCslovhykcEmlY_8repartir4task5testss_22test_task_builder_full
FN:643,_RNvNtNtCslovhykcEmlY_8repartir4task5testss_29test_execution_result_failure
FN:568,_RNvNtNtCslovhykcEmlY_8repartir4task5testss_32test_task_builder_missing_binary
FN:663,_RNvNtNtCslovhykcEmlY_8repartir4task5testss_34test_execution_result_invalid_utf8
FN:390,_RNCNvMs3_NtCslovhykcEmlY_8repartir4taskNtB7_11TaskBuilder5builds_0B9_
FNDA:20,_RINvMs3_NtCsc3L6sovwUNL_8repartir4taskNtB6_11TaskBuilder3argNtNtCs6juDKDKeRkf_5alloc6string6StringECsdXWUe7mQ55k_17integration_tests
FNDA:9,_RINvMs3_NtCsc3L6sovwUNL_8repartir4taskNtB6_11TaskBuilder3argReECsdXWUe7mQ55k_17integration_tests
FNDA:28,_RINvMs3_NtCsc3L6sovwUNL_8repartir4taskNtB6_11TaskBuilder6binaryReECsdXWUe7mQ55k_17integration_tests
FNDA:1,_RINvMs3_NtCsc3L6sovwUNL_8repartir4taskNtB6_11TaskBuilder7env_varReB10_ECsdXWUe7mQ55k_17integration_tests
FNDA:0,_RNCNvMs3_NtCsc3L6sovwUNL_8repartir4taskNtB7_11TaskBuilder5build0B9_
FNDA:0,_RNCNvMs4_NtCsc3L6sovwUNL_8repartir4taskNtB7_15ExecutionResult10stderr_str0B9_
FNDA:0,_RNCNvMs4_NtCsc3L6sovwUNL_8repartir4taskNtB7_15ExecutionResult10stdout_str0B9_
FNDA:45120,_RNvMNtCsc3L6sovwUNL_8repartir4taskNtB2_6TaskId3new
FNDA:0,_RNvMNtCsc3L6sovwUNL_8repartir4taskNtB2_6TaskId7as_uuid
FNDA:45135,_RNvMs1_NtCsc3L6sovwUNL_8repartir4taskNtB5_4Task2id
FNDA:19,_RNvMs1_NtCsc3L6sovwUNL_8repartir4taskNtB5_4Task3env
FNDA:19,_RNvMs1_NtCsc3L6sovwUNL_8repartir4taskNtB5_4Task4args
FNDA:39,_RNvMs1_NtCsc3L6sovwUNL_8repartir4taskNtB5_4Task6binary
FNDA:0,_RNvMs1_NtCsc3L6sovwUNL_8repartir4taskNtB5_4Task7backend
FNDA:45120,_RNvMs1_NtCsc3L6sovwUNL_8repartir4taskNtB5_4Task7builder
FNDA:19,_RNvMs1_NtCsc3L6sovwUNL_8repartir4taskNtB5_4Task7timeout
FNDA:265067,_RNvMs1_NtCsc3L6sovwUNL_8repartir4taskNtB5_4Task8priority
FNDA:0,_RNvMs3_NtCsc3L6sovwUNL_8repartir4taskNtB5_11TaskBuilder3env
FNDA:0,_RNvMs3_NtCsc3L6sovwUNL_8repartir4taskNtB5_11TaskBuilder4args
FNDA:45120,_RNvMs3_NtCsc3L6sovwUNL_8repartir4taskNtB5_11TaskBuilder5build
FNDA:45120,_RNvMs3_NtCsc3L6sovwUNL_8repartir4taskNtB5_11TaskBuilder7backend
FNDA:1,_RNvMs3_NtCsc3L6sovwUNL_8repartir4taskNtB5_11TaskBuilder7timeout
FNDA:7522,_RNvMs3_NtCsc3L6sovwUNL_8repartir4taskNtB5_11TaskBuilder8priority
FNDA:13,_RNvMs4_NtCsc3L6sovwUNL_8repartir4taskNtB5_15ExecutionResult10is_success
FNDA:0,_RNvMs4_NtCsc3L6sovwUNL_8repartir4taskNtB5_15ExecutionResult10stderr_str
FNDA:2,_RNvMs4_NtCsc3L6sovwUNL_8repartir4taskNtB5_15ExecutionResult10stdout_str
FNDA:18,_RNvMs4_NtCsc3L6sovwUNL_8repartir4taskNtB5_15ExecutionResult3new
FNDA:0,_RNvMs4_NtCsc3L6sovwUNL_8repartir4taskNtB5_15ExecutionResult6stderr
FNDA:0,_RNvMs4_NtCsc3L6sovwUNL_8repartir4taskNtB5_15ExecutionResult6stdout
FNDA:5,_RNvMs4_NtCsc3L6sovwUNL_8repartir4taskNtB5_15ExecutionResult7task_id
FNDA:0,_RNvMs4_NtCsc3L6sovwUNL_8repartir4taskNtB5_15ExecutionResult8duration
FNDA:1,_RNvMs4_NtCsc3L6sovwUNL_8repartir4taskNtB5_15ExecutionResult9exit_code
FNDA:0,_RNvXs0_NtCsc3L6sovwUNL_8repartir4taskNtB5_6TaskIdNtNtCs6RpC691fUBl_4core3fmt7Display3fmt
FNDA:45120,_RNvXs2_NtCsc3L6sovwUNL_8repartir4taskNtB5_11TaskBuilderNtNtCs6RpC691fUBl_4core7default7Default7default
FNDA:0,_RNvXs_NtCsc3L6sovwUNL_8repartir4taskNtB4_6TaskIdNtNtCs6RpC691fUBl_4core7default7Default7default
FNDA:0,_RINvMs3_NtCsc3L6sovwUNL_8repartir4taskNtB6_11TaskBuilder3argpEB8_
FNDA:0,_RINvMs3_NtCsc3L6sovwUNL_8repartir4taskNtB6_11TaskBuilder6binarypEB8_
FNDA:0,_RINvMs3_NtCsc3L6sovwUNL_8repartir4taskNtB6_11TaskBuilder7env_varppEB8_
FNDA:0,_RNCNvMs3_NtCsc3L6sovwUNL_8repartir4taskNtB7_11TaskBuilder5builds_0B9_
FNDA:45092,_RINvMs3_NtCsc3L6sovwUNL_8repartir4taskNtB6_11TaskBuilder3argNtNtCs6juDKDKeRkf_5alloc6string6StringECskNcmEebnRvf_14property_tests
FNDA:45092,_RINvMs3_NtCsc3L6sovwUNL_8repartir4taskNtB6_11TaskBuilder6binaryReECskNcmEebnRvf_14property_tests
FNDA:1,_RNCNvMs3_NtCslovhykcEmlY_8repartir4taskNtB7_11TaskBuilder5build0B9_
FNDA:1,_RNCNvMs4_NtCslovhykcEmlY_8repartir4taskNtB7_15ExecutionResult10stderr_str0B9_
FNDA:1,_RNCNvMs4_NtCslovhykcEmlY_8repartir4taskNtB7_15ExecutionResult10stdout_str0B9_
FNDA:35,_RNvMNtCslovhykcEmlY_8repartir4taskNtB2_6TaskId3new
FNDA:3,_RNvMNtCslovhykcEmlY_8repartir4taskNtB2_6TaskId7as_uuid
FNDA:23,_RNvMs1_NtCslovhykcEmlY_8repartir4taskNtB5_4Task2id
FNDA:14,_RNvMs1_NtCslovhykcEmlY_8repartir4taskNtB5_4Task3env
FNDA:14,_RNvMs1_NtCslovhykcEmlY_8repartir4taskNtB5_4Task4args
FNDA:26,_RNvMs1_NtCslovhykcEmlY_8repartir4taskNtB5_4Task6binary
FNDA:3,_RNvMs1_NtCslovhykcEmlY_8repartir4taskNtB5_4Task7backend
FNDA:25,_RNvMs1_NtCslovhykcEmlY_8repartir4taskNtB5_4Task7builder
FNDA:13,_RNvMs1_NtCslovhykcEmlY_8repartir4taskNtB5_4Task7timeout
FNDA:22,_RNvMs1_NtCslovhykcEmlY_8repartir4taskNtB5_4Task8priority
FNDA:1,_RNvMs3_NtCslovhykcEmlY_8repartir4taskNtB5_11TaskBuilder3env
FNDA:1,_RNvMs3_NtCslovhykcEmlY_8repartir4taskNtB5_11TaskBuilder4args
FNDA:25,_RNvMs3_NtCslovhykcEmlY_8repartir4taskNtB5_11TaskBuilder5build
FNDA:24,_RNvMs3_NtCslovhykcEmlY_8repartir4taskNtB5_11TaskBuilder7backend
FNDA:3,_RNvMs3_NtCslovhykcEmlY_8repartir4taskNtB5_11TaskBuilder7timeout
FNDA:5,_RNvMs3_NtCslovhykcEmlY_8repartir4taskNtB5_11TaskBuilder8priority
FNDA:12,_RNvMs4_NtCslovhykcEmlY_8repartir4taskNtB5_15ExecutionResult10is_success
FNDA:4,_RNvMs4_NtCslovhykcEmlY_8repartir4taskNtB5_15ExecutionResult10stderr_str
FNDA:7,_RNvMs4_NtCslovhykcEmlY_8repartir4taskNtB5_15ExecutionResult10stdout_str
FNDA:16,_RNvMs4_NtCslovhykcEmlY_8repartir4taskNtB5_15ExecutionResult3new
FNDA:2,_RNvMs4_NtCslovhykcEmlY_8repartir4taskNtB5_15ExecutionResult6stderr
FNDA:3,_RNvMs4_NtCslovhykcEmlY_8repartir4taskNtB5_15ExecutionResult6stdout
FNDA:5,_RNvMs4_NtCslovhykcEmlY_8repartir4taskNtB5_15ExecutionResult7task_id
FNDA:1,_RNvMs4_NtCslovhykcEmlY_8repartir4taskNtB5_15ExecutionResult8duration
FNDA:3,_RNvMs4_NtCslovhykcEmlY_8repartir4taskNtB5_15ExecutionResult9exit_code
FNDA:1,_RNvXs0_NtCslovhykcEmlY_8repartir4taskNtB5_6TaskIdNtNtCs6RpC691fUBl_4core3fmt7Display3fmt
FNDA:25,_RNvXs2_NtCslovhykcEmlY_8repartir4taskNtB5_11TaskBuilderNtNtCs6RpC691fUBl_4core7default7Default7default
FNDA:1,_RNvXs_NtCslovhykcEmlY_8repartir4taskNtB4_6TaskIdNtNtCs6RpC691fUBl_4core7default7Default7default
FNDA:30,_RINvMs3_NtCslovhykcEmlY_8repartir4taskNtB6_11TaskBuilder3argReEB8_
FNDA:24,_RINvMs3_NtCslovhykcEmlY_8repartir4taskNtB6_11TaskBuilder6binaryReEB8_
FNDA:2,_RINvMs3_NtCslovhykcEmlY_8repartir4taskNtB6_11TaskBuilder7env_varReB10_EB8_
FNDA:1,_RNvNtNtCslovhykcEmlY_8repartir4task5testss_16test_backend_cpu
FNDA:1,_RNvNtNtCslovhykcEmlY_8repartir4task5testss_17test_task_builder
FNDA:1,_RNvNtNtCslovhykcEmlY_8repartir4task5testss_20test_task_id_as_uuid
FNDA:1,_RNvNtNtCslovhykcEmlY_8repartir4task5testss_20test_task_id_default
FNDA:1,_RNvNtNtCslovhykcEmlY_8repartir4task5testss_20test_task_id_display
FNDA:1,_RNvNtNtCslovhykcEmlY_8repartir4task5testss_21test_execution_result
FNDA:1,_RNvNtNtCslovhykcEmlY_8repartir4task5testss_21test_priority_default
FNDA:1,_RNvNtNtCslovhykcEmlY_8repartir4task5testss_21test_task_id_creation
FNDA:1,_RNvNtNtCslovhykcEmlY_8repartir4task5testss_22test_priority_ordering
FNDA:1,_RNvNtNtCslovhykcEmlY_8repartir4task5testss_22test_task_builder_full
FNDA:1,_RNvNtNtCslovhykcEmlY_8repartir4task5testss_29test_execution_result_failure
FNDA:1,_RNvNtNtCslovhykcEmlY_8repartir4task5testss_32test_task_builder_missing_binary
FNDA:1,_RNvNtNtCslovhykcEmlY_8repartir4task5testss_34test_execution_result_invalid_utf8
FNDA:0,_RNCNvMs3_NtCslovhykcEmlY_8repartir4taskNtB7_11TaskBuilder5builds_0B9_
FNF:48
FNH:47
DA:22,45155
DA:23,45155
DA:24,45155
DA:28,3
DA:29,3
DA:30,3
DA:34,1
DA:35,1
DA:36,1
DA:40,1
DA:41,1
DA:42,1
DA:121,45145
DA:122,45145
DA:123,45145
DA:127,45158
DA:128,45158
DA:129,45158
DA:133,65
DA:134,65
DA:135,65
DA:139,33
DA:140,33
DA:141,33
DA:145,33
DA:146,33
DA:147,33
DA:151,3
DA:152,3
DA:153,3
DA:157,265089
DA:158,265089
DA:159,265089
DA:163,32
DA:164,32
DA:165,32
DA:216,45145
DA:217,45145
DA:218,45145
DA:219,45145
DA:220,45145
DA:221,45145
DA:222,45145
DA:223,45145
DA:224,45145
DA:225,45145
DA:226,45145
DA:227,45145
DA:228,45145
DA:229,45145
DA:230,45145
DA:231,45145
DA:232,45145
DA:233,45145
DA:239,45144
DA:240,45144
DA:241,45144
DA:242,45144
DA:246,1
DA:247,1
DA:248,1
DA:249,1
DA:253,45151
DA:254,45151
DA:255,45151
DA:256,45151
DA:260,1
DA:261,1
DA:262,1
DA:263,1
DA:267,3
DA:268,3
DA:269,3
DA:270,3
DA:274,45144
DA:275,45144
DA:276,45144
DA:277,45144
DA:281,7527
DA:282,7527
DA:283,7527
DA:284,7527
DA:288,4
DA:289,4
DA:290,4
DA:291,4
DA:377,45145
DA:382,45145
DA:384,45145
DA:385,45145
DA:386,45145
DA:387,1
DA:388,1
DA:390,0
DA:393,45144
DA:394,45144
DA:395,45144
DA:396,45144
DA:397,45144
DA:398,45144
DA:399,45144
DA:400,45144
DA:401,45144
DA:402,45144
DA:403,45144
DA:404,45144
DA:405,45144
DA:406,45144
DA:407,45144
DA:408,45144
DA:409,45144
DA:410,45145
DA:435,34
DA:436,34
DA:437,34
DA:438,34
DA:439,34
DA:440,34
DA:441,34
DA:442,34
DA:443,34
DA:444,34
DA:445,34
DA:446,34
DA:447,34
DA:448,34
DA:449,34
DA:450,34
DA:451,34
DA:474,10
DA:475,10
DA:476,10
DA:480,4
DA:481,4
DA:482,4
DA:486,25
DA:487,25
DA:488,25
DA:492,3
DA:493,3
DA:494,3
DA:498,2
DA:499,2
DA:500,2
DA:504,1
DA:505,1
DA:506,1
DA:513,9
DA:514,9
DA:515,1
DA:516,1
DA:517,9
DA:524,4
DA:525,4
DA:526,1
DA:527,1
DA:528,4
DA:544,1
DA:545,1
DA:546,1
DA:547,1
DA:548,1
DA:551,1
DA:552,1
DA:553,1
DA:554,1
DA:555,1
DA:556,1
DA:557,1
DA:558,1
DA:560,1
DA:561,1
DA:562,1
DA:563,1
DA:564,1
DA:565,1
DA:568,1
DA:569,1
DA:570,1
DA:571,1
DA:574,1
DA:575,1
DA:576,1
DA:577,1
DA:580,1
DA:581,1
DA:582,1
DA:583,1
DA:585,1
DA:586,1
DA:587,1
DA:590,1
DA:591,1
DA:592,1
DA:593,1
DA:596,1
DA:597,1
DA:598,1
DA:599,1
DA:602,1
DA:603,1
DA:604,1
DA:605,1
DA:606,1
DA:607,1
DA:610,1
DA:611,1
DA:612,1
DA:613,1
DA:614,1
DA:617,1
DA:618,1
DA:619,1
DA:621,1
DA:622,1
DA:623,1
DA:624,1
DA:625,1
DA:626,1
DA:627,1
DA:628,1
DA:629,1
DA:631,1
DA:632,1
DA:633,1
DA:634,1
DA:635,1
DA:636,1
DA:637,1
DA:638,1
DA:639,1
DA:640,1
DA:643,1
DA:644,1
DA:645,1
DA:646,1
DA:648,1
DA:649,1
DA:650,1
DA:653,1
DA:654,1
DA:655,1
DA:656,1
DA:657,1
DA:658,1
DA:659,1
DA:660,1
DA:663,1
DA:664,1
DA:665,1
DA:666,1
DA:667,1
DA:669,1
DA:670,1
DA:671,1
DA:674,1
DA:675,1
DA:676,1
DA:679,1
DA:680,1
DA:681,1
DA:682,1
DA:685,1
DA:686,1
DA:687,1
DA:688,1
DA:689,1
DA:690,1
DA:691,1
DA:692,1
BRF:0
BRH:0
LF:272
LH:270
end_of_record